
a.out:     file format elf64-littleriscv


Disassembly of section .plt:

0000000000000540 <.plt>:
 540:	00002397          	auipc	t2,0x2
 544:	41c30333          	sub	t1,t1,t3
 548:	a803be03          	ld	t3,-1408(t2) # 1fc0 <.got>
 54c:	fd430313          	addi	t1,t1,-44
 550:	a8038293          	addi	t0,t2,-1408
 554:	00135313          	srli	t1,t1,0x1
 558:	0082b283          	ld	t0,8(t0)
 55c:	000e0067          	jr	t3

0000000000000560 <__libc_start_main@plt>:
 560:	00002e17          	auipc	t3,0x2
 564:	a70e3e03          	ld	t3,-1424(t3) # 1fd0 <__libc_start_main@GLIBC_2.34>
 568:	000e0367          	jalr	t1,t3
 56c:	00000013          	nop

Disassembly of section .text:

0000000000000570 <_start>:
 570:	022000ef          	jal	592 <load_gp>
 574:	87aa                	mv	a5,a0
 576:	00002517          	auipc	a0,0x2
 57a:	a7253503          	ld	a0,-1422(a0) # 1fe8 <_GLOBAL_OFFSET_TABLE_+0x10>
 57e:	6582                	ld	a1,0(sp)
 580:	0030                	addi	a2,sp,8
 582:	ff017113          	andi	sp,sp,-16
 586:	4681                	li	a3,0
 588:	4701                	li	a4,0
 58a:	880a                	mv	a6,sp
 58c:	fd5ff0ef          	jal	560 <__libc_start_main@plt>
 590:	9002                	ebreak

0000000000000592 <load_gp>:
 592:	00002197          	auipc	gp,0x2
 596:	26e18193          	addi	gp,gp,622 # 2800 <__global_pointer$>
 59a:	8082                	ret
	...

000000000000059e <deregister_tm_clones>:
 59e:	1141                	addi	sp,sp,-16
 5a0:	e422                	sd	s0,8(sp)
 5a2:	0800                	addi	s0,sp,16
 5a4:	00002517          	auipc	a0,0x2
 5a8:	a6450513          	addi	a0,a0,-1436 # 2008 <__TMC_END__>
 5ac:	00002797          	auipc	a5,0x2
 5b0:	a5c78793          	addi	a5,a5,-1444 # 2008 <__TMC_END__>
 5b4:	00a78a63          	beq	a5,a0,5c8 <deregister_tm_clones+0x2a>
 5b8:	00002797          	auipc	a5,0x2
 5bc:	a287b783          	ld	a5,-1496(a5) # 1fe0 <_ITM_deregisterTMCloneTable@Base>
 5c0:	c781                	beqz	a5,5c8 <deregister_tm_clones+0x2a>
 5c2:	6422                	ld	s0,8(sp)
 5c4:	0141                	addi	sp,sp,16
 5c6:	8782                	jr	a5
 5c8:	6422                	ld	s0,8(sp)
 5ca:	0141                	addi	sp,sp,16
 5cc:	8082                	ret

00000000000005ce <register_tm_clones>:
 5ce:	00002517          	auipc	a0,0x2
 5d2:	a3a50513          	addi	a0,a0,-1478 # 2008 <__TMC_END__>
 5d6:	00002597          	auipc	a1,0x2
 5da:	a3258593          	addi	a1,a1,-1486 # 2008 <__TMC_END__>
 5de:	8d89                	sub	a1,a1,a0
 5e0:	1141                	addi	sp,sp,-16
 5e2:	4035d793          	srai	a5,a1,0x3
 5e6:	91fd                	srli	a1,a1,0x3f
 5e8:	e422                	sd	s0,8(sp)
 5ea:	95be                	add	a1,a1,a5
 5ec:	0800                	addi	s0,sp,16
 5ee:	8585                	srai	a1,a1,0x1
 5f0:	c989                	beqz	a1,602 <register_tm_clones+0x34>
 5f2:	00002797          	auipc	a5,0x2
 5f6:	a067b783          	ld	a5,-1530(a5) # 1ff8 <_ITM_registerTMCloneTable@Base>
 5fa:	c781                	beqz	a5,602 <register_tm_clones+0x34>
 5fc:	6422                	ld	s0,8(sp)
 5fe:	0141                	addi	sp,sp,16
 600:	8782                	jr	a5
 602:	6422                	ld	s0,8(sp)
 604:	0141                	addi	sp,sp,16
 606:	8082                	ret

0000000000000608 <__do_global_dtors_aux>:
 608:	1101                	addi	sp,sp,-32
 60a:	e822                	sd	s0,16(sp)
 60c:	e426                	sd	s1,8(sp)
 60e:	ec06                	sd	ra,24(sp)
 610:	1000                	addi	s0,sp,32
 612:	00002497          	auipc	s1,0x2
 616:	9f648493          	addi	s1,s1,-1546 # 2008 <__TMC_END__>
 61a:	0004c783          	lbu	a5,0(s1)
 61e:	e385                	bnez	a5,63e <__do_global_dtors_aux+0x36>
 620:	00002797          	auipc	a5,0x2
 624:	9d07b783          	ld	a5,-1584(a5) # 1ff0 <__cxa_finalize@GLIBC_2.27>
 628:	c791                	beqz	a5,634 <__do_global_dtors_aux+0x2c>
 62a:	00002517          	auipc	a0,0x2
 62e:	9d653503          	ld	a0,-1578(a0) # 2000 <__dso_handle>
 632:	9782                	jalr	a5
 634:	f6bff0ef          	jal	59e <deregister_tm_clones>
 638:	4785                	li	a5,1
 63a:	00f48023          	sb	a5,0(s1)
 63e:	60e2                	ld	ra,24(sp)
 640:	6442                	ld	s0,16(sp)
 642:	64a2                	ld	s1,8(sp)
 644:	6105                	addi	sp,sp,32
 646:	8082                	ret

0000000000000648 <frame_dummy>:
 648:	1141                	addi	sp,sp,-16
 64a:	e422                	sd	s0,8(sp)
 64c:	0800                	addi	s0,sp,16
 64e:	6422                	ld	s0,8(sp)
 650:	0141                	addi	sp,sp,16
 652:	bfb5                	j	5ce <register_tm_clones>

0000000000000654 <main>:
 654:	1101                	addi	sp,sp,-32
 656:	ec22                	sd	s0,24(sp)
 658:	1000                	addi	s0,sp,32
 65a:	87aa                	mv	a5,a0
 65c:	feb43023          	sd	a1,-32(s0)
 660:	fef42623          	sw	a5,-20(s0)
 664:	63d00793          	li	a5,1597
 668:	853e                	mv	a0,a5
 66a:	6462                	ld	s0,24(sp)
 66c:	6105                	addi	sp,sp,32
 66e:	8082                	ret
