
sector-riscv.elf:     file format elf32-littleriscv
sector-riscv.elf

Sections:
Idx Name          Size      VMA       LMA       File off  Algn
  0 .note.gnu.build-id 00000024  000100d4  000100d4  000000d4  2**2
                  CONTENTS, ALLOC, LOAD, READONLY, DATA
  1 .text         000008a2  000100f8  000100f8  000000f8  2**2
                  CONTENTS, ALLOC, LOAD, READONLY, CODE
  2 .got          0000002c  00011fcc  00011fcc  00000fcc  2**2
                  CONTENTS, ALLOC, LOAD, DATA
  3 .got.plt      00000008  00011ff8  00011ff8  00000ff8  2**2
                  CONTENTS, ALLOC, LOAD, DATA
  4 .bss          000001c0  00012000  00012000  00001000  2**2
                  ALLOC
  5 .riscv.attributes 0000001f  00000000  00000000  00001000  2**0
                  CONTENTS, READONLY
SYMBOL TABLE:
000100d4 l    d  .note.gnu.build-id	00000000 .note.gnu.build-id
000100f8 l    d  .text	00000000 .text
00011fcc l    d  .got	00000000 .got
00011ff8 l    d  .got.plt	00000000 .got.plt
00012000 l    d  .bss	00000000 .bss
00000000 l    d  .riscv.attributes	00000000 .riscv.attributes
00000000 l    df *ABS*	00000000 ccP5Me5i.o
00000000 l       *ABS*	00000000 FALSE
ffffffff l       *ABS*	00000000 TRUE
00000000 l       *ABS*	00000000 EXECUTE
00000001 l       *ABS*	00000000 COMPILE
ffffffff l       *ABS*	00000000 POSTPONE
00000001 l       *ABS*	00000000 ONE
00000002 l       *ABS*	00000000 TWO
00000004 l       *ABS*	00000000 CELL
0000000a l       *ABS*	00000000 NL
0000000d l       *ABS*	00000000 CR
00000020 l       *ABS*	00000000 BL
00000090 l       *ABS*	00000000 spz
00000090 l       *ABS*	00000000 rpz
00000050 l       *ABS*	00000000 tibz
00000054 l       *ABS*	00000000 padz
00000044 l       *ABS*	00000000 picz
80000000 l       *ABS*	00000000 FLAG_IMM
7fffffff l       *ABS*	00000000 MASK_IMM
00000000 l       *ABS*	00000000 SPTR
00000004 l       *ABS*	00000000 RPTR
00000008 l       *ABS*	00000000 LAST
0000000c l       *ABS*	00000000 HERE
00000010 l       *ABS*	00000000 TOIN
00000014 l       *ABS*	00000000 STAT
00000018 l       *ABS*	00000000 HEAD
0000001c l       *ABS*	00000000 TAIL
0002b584 l       *ABS*	00000000 hash_store
0002b5e5 l       *ABS*	00000000 hash_fetch
0002b58e l       *ABS*	00000000 hash_plus
00596816 l       *ABS*	00000000 hash_zeroq
00596f90 l       *ABS*	00000000 hash_userat
0002b59f l       *ABS*	00000000 hash_colon
8002b59e l       *ABS*	00000000 hash_semis
0b876d32 l       *ABS*	00000000 hash_key
7c6b87d0 l       *ABS*	00000000 hash_emit
7c6bbe85 l       *ABS*	00000000 hash_exit
7c727500 l       *ABS*	00000000 hash_nand
0b87f112 l       *ABS*	00000000 hash_KEY
7c7c87d0 l       *ABS*	00000000 hash_EMIT
7c7dc745 l       *ABS*	00000000 hash_EXIT
7c8254c0 l       *ABS*	00000000 hash_NAND
00012000 l       .bss	00000000 _user
00012020 l       .bss	00000000 _locals
00012040 l       .bss	00000000 _spb
000120d0 l       .bss	00000000 sp0
000120d4 l       .bss	00000000 _rpb
00012164 l       .bss	00000000 rp0
00012168 l       .bss	00000000 _tib
000121b8 l       .bss	00000000 h_here
0001041e l       .text	00000000 _putc
0001015e l       .text	00000000 main
0001015e l       .text	00000000 cold
00010166 l       .text	00000000 warm
000104d2 l       .text	00000000 h_last
0001017a l       .text	00000000 reset
00010184 l       .text	00000000 error
000101a8 l       .text	00000000 abort
000101b2 l       .text	00000000 quit
000101c0 l       .text	00000000 okey
000101e8 l       .text	00000000 tick
00010240 l       .text	00000000 token
000101ea l       .text	00000000 find
00010220 l       .text	00000000 miss
00010204 l       .text	00000000 eval
00010216 l       .text	00000000 execute
0001020e l       .text	00000000 postpone
00010216 l       .text	00000000 immediate
00010212 l       .text	00000000 compile
000102ce l       .text	00000000 docomma
000103f4 l       .text	00000000 tickpt
000103d8 l       .text	00000000 pick
00010236 l       .text	00000000 wipe
00010258 l       .text	00000000 gets
0001029c l       .text	00000000 hash
00010404 l       .text	00000000 _getc
00001505 l       *ABS*	00000000 DJB2
00000005 l       *ABS*	00000000 SFHT
0001029e l       .text	00000000 djb2
000102ba l       .text	00000000 mask
000104de l       .text	00000000 saves
000104f2 l       .text	00000000 loads
000102f8 l       .text	00000000 pull2
00010302 l       .text	00000000 h_key
0001030a l       .text	00000000 key
00010374 l       .text	00000000 push1
0001030e l       .text	00000000 h_emit
00010316 l       .text	00000000 emit
0001037a l       .text	00000000 save1
0001031c l       .text	00000000 h_store
00010324 l       .text	00000000 store
00010328 l       .text	00000000 drop1
0001032c l       .text	00000000 h_fetch
00010334 l       .text	00000000 fetch
00010376 l       .text	00000000 back1
0001033a l       .text	00000000 h_nand
00010342 l       .text	00000000 nand
00010378 l       .text	00000000 keep1
0001034c l       .text	00000000 h_plus
00010354 l       .text	00000000 plus
0001035a l       .text	00000000 h_zeroq
00010362 l       .text	00000000 zeroq
00010364 l       .text	00000000 isfalse
000103d4 l       .text	00000000 next
00010366 l       .text	00000000 istrue
0001036a l       .text	00000000 h_userat
00010372 l       .text	00000000 userat
0001037e l       .text	00000000 h_colon
00010386 l       .text	00000000 colon
0001038e l       .text	00000000 create
00010396 l       .text	00000000 comma
000103aa l       .text	00000000 h_semis
000103b2 l       .text	00000000 semis
000103ba l       .text	00000000 finish
000103cc l       .text	00000000 exit
000103c4 l       .text	00000000 h_exit
000103cc l       .text	00000000 unnest
00010998 l       .text	00000000 ends
000103e8 l       .text	00000000 nest
000103e4 l       .text	00000000 jump
000103f0 l       .text	00000000 move
00000000 l       *ABS*	00000000 _ZERO
00000001 l       *ABS*	00000000 _ONE
00000000 l       *ABS*	00000000 _STDIN
00000001 l       *ABS*	00000000 _STDOUT
0000002d l       *ABS*	00000000 _SBRK
00000037 l       *ABS*	00000000 _FCNT
0000003f l       *ABS*	00000000 _GETC
00000040 l       *ABS*	00000000 _PUTC
0000005d l       *ABS*	00000000 _EXIT
000000c0 l       *ABS*	00000000 _MMAP
000121bc l       .bss	00000000 _char
000103f8 l       .text	00000000 _exit
00010402 l       .text	00000000 _init
00010432 l       .text	00000000 _rets
000103c4 l       .text	00000000 into_extras
00596858 l       *ABS*	00000000 hash_sfr
0059695b l       *ABS*	00000000 hash_docode
0059697a l       *ABS*	00000000 hash_donext
0b874afb l       *ABS*	00000000 hash_bye
0a1dff4f l       *ABS*	00000000 hash_abort
005965d3 l       *ABS*	00000000 hash_splist
005965d2 l       *ABS*	00000000 hash_rplist
7c6b2fe9 l       *ABS*	00000000 hash_dump
0b6953f8 l       *ABS*	00000000 hash_words
0b878f36 l       *ABS*	00000000 hash_see
0002b58b l       *ABS*	00000000 hash_dot
7c70b163 l       *ABS*	00000000 hash_cell
00010438 l       .text	00000000 h_sfr
00010440 l       .text	00000000 sfr
00010446 l       .text	00000000 h_docode
0001044e l       .text	00000000 docode
00010454 l       .text	00000000 h_donext
0001045c l       .text	00000000 donext
0001045e l       .text	00000000 h_byes
00010466 l       .text	00000000 byes
00010468 l       .text	00000000 h_aborts
00010470 l       .text	00000000 aborts
00010472 l       .text	00000000 h_splist
0001047a l       .text	00000000 splist
0001058e l       .text	00000000 stackS
0001047e l       .text	00000000 h_rplist
00010486 l       .text	00000000 rplist
000105b4 l       .text	00000000 stackR
0001048a l       .text	00000000 h_dump
00010492 l       .text	00000000 dump
00010648 l       .text	00000000 dumps
000104a2 l       .text	00000000 h_words
000104aa l       .text	00000000 words
0001050e l       .text	00000000 wordf
000104ae l       .text	00000000 h_sees
000104b6 l       .text	00000000 sees
0001053c l       .text	00000000 wordu
000104ba l       .text	00000000 h_dot
000104c2 l       .text	00000000 dot
0001092e l       .text	00000000 puthexy
000104d2 l       .text	00000000 h_cell
000104da l       .text	00000000 cell
000104d2 l       .text	00000000 from_extras
00010506 l       .text	00000000 returns
0001054c l       .text	00000000 wordt
000105da l       .text	00000000 stackp
000106a0 l       .text	00000000 shows
000108ee l       .text	00000000 number
0001090e l       .text	00000000 digit
00011fcc l     O .got	00000000 _GLOBAL_OFFSET_TABLE_
00012800 g       *ABS*	00000000 __global_pointer$
00012000 g       .got.plt	00000000 __SDATA_BEGIN__
000100f8 g       .text	00000000 puthex
0001015e g       .text	00000000 _start
000121c0 g       .bss	00000000 __BSS_END__
00012000 g       .bss	00000000 __bss_start
00012000 g       .got.plt	00000000 __DATA_BEGIN__
00012000 g       .got.plt	00000000 _edata
000121c0 g       .bss	00000000 _end



Disassembly of section .text:

000100f8 <puthex>:
   100f8:	1171                	addi	sp,sp,-4
   100fa:	c006                	sw	ra,0(sp)
   100fc:	8936                	mv	s2,a3
   100fe:	03a00a93          	li	s5,58
   10102:	02000693          	li	a3,32
   10106:	2e21                	jal	1041e <_putc>
   10108:	01895993          	srli	s3,s2,0x18
   1010c:	2831                	jal	10128 <puthex+0x30>
   1010e:	01095993          	srli	s3,s2,0x10
   10112:	2819                	jal	10128 <puthex+0x30>
   10114:	00895993          	srli	s3,s2,0x8
   10118:	2801                	jal	10128 <puthex+0x30>
   1011a:	00095993          	srli	s3,s2,0x0
   1011e:	2029                	jal	10128 <puthex+0x30>
   10120:	86ca                	mv	a3,s2
   10122:	4082                	lw	ra,0(sp)
   10124:	0111                	addi	sp,sp,4
   10126:	8082                	ret
   10128:	1171                	addi	sp,sp,-4
   1012a:	c006                	sw	ra,0(sp)
   1012c:	0ff9f993          	zext.b	s3,s3
   10130:	0049da13          	srli	s4,s3,0x4
   10134:	2039                	jal	10142 <puthex+0x4a>
   10136:	0009da13          	srli	s4,s3,0x0
   1013a:	2021                	jal	10142 <puthex+0x4a>
   1013c:	4082                	lw	ra,0(sp)
   1013e:	0111                	addi	sp,sp,4
   10140:	8082                	ret
   10142:	1171                	addi	sp,sp,-4
   10144:	c006                	sw	ra,0(sp)
   10146:	00fa7a13          	andi	s4,s4,15
   1014a:	030a6a13          	ori	s4,s4,48
   1014e:	015a4363          	blt	s4,s5,10154 <puthex+0x5c>
   10152:	0a1d                	addi	s4,s4,7
   10154:	86d2                	mv	a3,s4
   10156:	24e1                	jal	1041e <_putc>
   10158:	4082                	lw	ra,0(sp)
   1015a:	0111                	addi	sp,sp,4
   1015c:	8082                	ret

0001015e <_start>:
   1015e:	00002417          	auipc	s0,0x2
   10162:	e7242403          	lw	s0,-398(s0) # 11fd0 <_GLOBAL_OFFSET_TABLE_+0x4>

00010166 <warm>:
   10166:	00002697          	auipc	a3,0x2
   1016a:	e7a6a683          	lw	a3,-390(a3) # 11fe0 <_GLOBAL_OFFSET_TABLE_+0x14>
   1016e:	c454                	sw	a3,12(s0)
   10170:	00002697          	auipc	a3,0x2
   10174:	e746a683          	lw	a3,-396(a3) # 11fe4 <_GLOBAL_OFFSET_TABLE_+0x18>
   10178:	c414                	sw	a3,8(s0)

0001017a <reset>:
   1017a:	00002697          	auipc	a3,0x2
   1017e:	e626a683          	lw	a3,-414(a3) # 11fdc <_GLOBAL_OFFSET_TABLE_+0x10>
   10182:	c814                	sw	a3,16(s0)

00010184 <error>:
   10184:	82b6                	mv	t0,a3
   10186:	46a9                	li	a3,10
   10188:	2c59                	jal	1041e <_putc>
   1018a:	8696                	mv	a3,t0
   1018c:	82b6                	mv	t0,a3
   1018e:	03f00693          	li	a3,63
   10192:	2471                	jal	1041e <_putc>
   10194:	8696                	mv	a3,t0
   10196:	82b6                	mv	t0,a3
   10198:	03f00693          	li	a3,63
   1019c:	2449                	jal	1041e <_putc>
   1019e:	8696                	mv	a3,t0
   101a0:	82b6                	mv	t0,a3
   101a2:	46a9                	li	a3,10
   101a4:	2cad                	jal	1041e <_putc>
   101a6:	8696                	mv	a3,t0

000101a8 <abort>:
   101a8:	00002697          	auipc	a3,0x2
   101ac:	e2c6a683          	lw	a3,-468(a3) # 11fd4 <_GLOBAL_OFFSET_TABLE_+0x8>
   101b0:	c014                	sw	a3,0(s0)

000101b2 <quit>:
   101b2:	00002697          	auipc	a3,0x2
   101b6:	e266a683          	lw	a3,-474(a3) # 11fd8 <_GLOBAL_OFFSET_TABLE_+0xc>
   101ba:	c054                	sw	a3,4(s0)
   101bc:	00042a23          	sw	zero,20(s0)

000101c0 <okey>:
   101c0:	4854                	lw	a3,20(s0)
   101c2:	e29d                	bnez	a3,101e8 <tick>
   101c4:	82b6                	mv	t0,a3
   101c6:	46a9                	li	a3,10
   101c8:	2c99                	jal	1041e <_putc>
   101ca:	8696                	mv	a3,t0
   101cc:	82b6                	mv	t0,a3
   101ce:	04f00693          	li	a3,79
   101d2:	24b1                	jal	1041e <_putc>
   101d4:	8696                	mv	a3,t0
   101d6:	82b6                	mv	t0,a3
   101d8:	04b00693          	li	a3,75
   101dc:	2489                	jal	1041e <_putc>
   101de:	8696                	mv	a3,t0
   101e0:	82b6                	mv	t0,a3
   101e2:	46a9                	li	a3,10
   101e4:	2c2d                	jal	1041e <_putc>
   101e6:	8696                	mv	a3,t0

000101e8 <tick>:
   101e8:	28a1                	jal	10240 <token>

000101ea <find>:
   101ea:	440c                	lw	a1,8(s0)
   101ec:	c995                	beqz	a1,10220 <miss>
   101ee:	86ae                	mv	a3,a1
   101f0:	428c                	lw	a1,0(a3)
   101f2:	0691                	addi	a3,a3,4
   101f4:	4290                	lw	a2,0(a3)
   101f6:	80000737          	lui	a4,0x80000
   101fa:	8f71                	and	a4,a4,a2
   101fc:	8e39                	xor	a2,a2,a4
   101fe:	fec517e3          	bne	a0,a2,101ec <find+0x2>
   10202:	0691                	addi	a3,a3,4

00010204 <eval>:
   10204:	4850                	lw	a2,20(s0)
   10206:	ca01                	beqz	a2,10216 <execute>
   10208:	00064363          	bltz	a2,1020e <postpone>
   1020c:	e709                	bnez	a4,10216 <execute>

0001020e <postpone>:
   1020e:	4605                	li	a2,1
   10210:	c850                	sw	a2,20(s0)

00010212 <compile>:
   10212:	2875                	jal	102ce <docomma>
   10214:	bfd1                	j	101e8 <tick>

00010216 <execute>:
   10216:	00002497          	auipc	s1,0x2
   1021a:	dd24a483          	lw	s1,-558(s1) # 11fe8 <_GLOBAL_OFFSET_TABLE_+0x1c>
   1021e:	aa6d                	j	103d8 <pick>

00010220 <miss>:
   10220:	82b6                	mv	t0,a3
   10222:	46a9                	li	a3,10
   10224:	2aed                	jal	1041e <_putc>
   10226:	8696                	mv	a3,t0
   10228:	00078683          	lb	a3,0(a5)
   1022c:	2acd                	jal	1041e <_putc>
   1022e:	01068463          	beq	a3,a6,10236 <wipe>
   10232:	0785                	addi	a5,a5,1
   10234:	bfd5                	j	10228 <miss+0x8>

00010236 <wipe>:
   10236:	4854                	lw	a3,20(s0)
   10238:	c299                	beqz	a3,1023e <wipe+0x8>
   1023a:	4c14                	lw	a3,24(s0)
   1023c:	c454                	sw	a3,12(s0)
   1023e:	b799                	j	10184 <error>

00010240 <token>:
   10240:	1171                	addi	sp,sp,-4
   10242:	c006                	sw	ra,0(sp)
   10244:	02000813          	li	a6,32
   10248:	481c                	lw	a5,16(s0)
   1024a:	00078703          	lb	a4,0(a5)
   1024e:	c709                	beqz	a4,10258 <gets>
   10250:	05071663          	bne	a4,a6,1029c <hash>
   10254:	0785                	addi	a5,a5,1
   10256:	bfd5                	j	1024a <token+0xa>

00010258 <gets>:
   10258:	00002797          	auipc	a5,0x2
   1025c:	d847a783          	lw	a5,-636(a5) # 11fdc <_GLOBAL_OFFSET_TABLE_+0x10>
   10260:	c81c                	sw	a5,16(s0)
   10262:	4729                	li	a4,10
   10264:	86c2                	mv	a3,a6
   10266:	00d78023          	sb	a3,0(a5)
   1026a:	0785                	addi	a5,a5,1
   1026c:	2a61                	jal	10404 <_getc>
   1026e:	07f6f693          	andi	a3,a3,127
   10272:	02000293          	li	t0,32
   10276:	fe56d8e3          	bge	a3,t0,10266 <gets+0xe>
   1027a:	42e1                	li	t0,24
   1027c:	fc568ee3          	beq	a3,t0,10258 <gets>
   10280:	42a9                	li	t0,10
   10282:	00568863          	beq	a3,t0,10292 <gets+0x3a>
   10286:	42b5                	li	t0,13
   10288:	00568563          	beq	a3,t0,10292 <gets+0x3a>
   1028c:	b7c5                	j	1026c <gets+0x14>
   1028e:	fce69ce3          	bne	a3,a4,10266 <gets+0xe>
   10292:	01078023          	sb	a6,0(a5)
   10296:	000780a3          	sb	zero,1(a5)
   1029a:	b77d                	j	10248 <token+0x8>

0001029c <hash>:
   1029c:	863e                	mv	a2,a5

0001029e <djb2>:
   1029e:	00001537          	lui	a0,0x1
   102a2:	50550513          	addi	a0,a0,1285 # 1505 <DJB2>
   102a6:	00078683          	lb	a3,0(a5)
   102aa:	01068863          	beq	a3,a6,102ba <mask>
   102ae:	872a                	mv	a4,a0
   102b0:	0516                	slli	a0,a0,0x5
   102b2:	953a                	add	a0,a0,a4
   102b4:	8d35                	xor	a0,a0,a3
   102b6:	0785                	addi	a5,a5,1
   102b8:	b7fd                	j	102a6 <djb2+0x8>

000102ba <mask>:
   102ba:	800006b7          	lui	a3,0x80000
   102be:	fff68693          	addi	a3,a3,-1 # 7fffffff <MASK_IMM>
   102c2:	8d75                	and	a0,a0,a3
   102c4:	c81c                	sw	a5,16(s0)
   102c6:	87b2                	mv	a5,a2
   102c8:	4082                	lw	ra,0(sp)
   102ca:	0111                	addi	sp,sp,4
   102cc:	8082                	ret

000102ce <docomma>:
   102ce:	445c                	lw	a5,12(s0)
   102d0:	c394                	sw	a3,0(a5)
   102d2:	1171                	addi	sp,sp,-4
   102d4:	c006                	sw	ra,0(sp)
   102d6:	2421                	jal	104de <saves>
   102d8:	86be                	mv	a3,a5
   102da:	3d39                	jal	100f8 <puthex>
   102dc:	2c19                	jal	104f2 <loads>
   102de:	4082                	lw	ra,0(sp)
   102e0:	0111                	addi	sp,sp,4
   102e2:	1171                	addi	sp,sp,-4
   102e4:	c006                	sw	ra,0(sp)
   102e6:	2ae5                	jal	104de <saves>
   102e8:	86b6                	mv	a3,a3
   102ea:	3539                	jal	100f8 <puthex>
   102ec:	2419                	jal	104f2 <loads>
   102ee:	4082                	lw	ra,0(sp)
   102f0:	0111                	addi	sp,sp,4
   102f2:	0791                	addi	a5,a5,4
   102f4:	c45c                	sw	a5,12(s0)
   102f6:	8082                	ret

000102f8 <pull2>:
   102f8:	401c                	lw	a5,0(s0)
   102fa:	4394                	lw	a3,0(a5)
   102fc:	0791                	addi	a5,a5,4
   102fe:	4398                	lw	a4,0(a5)
   10300:	8082                	ret

00010302 <h_key>:
   10302:	00000000          	.word	0x00000000
   10306:	0b876d32          	.word	0x0b876d32

0001030a <key>:
   1030a:	28ed                	jal	10404 <_getc>
   1030c:	a0a5                	j	10374 <push1>

0001030e <h_emit>:
   1030e:	00010302          	.word	0x00010302
   10312:	7c6b87d0          	.word	0x7c6b87d0

00010316 <emit>:
   10316:	37cd                	jal	102f8 <pull2>
   10318:	2219                	jal	1041e <_putc>
   1031a:	a085                	j	1037a <save1>

0001031c <h_store>:
   1031c:	0001030e          	.word	0x0001030e
   10320:	0002b584          	.word	0x0002b584

00010324 <store>:
   10324:	3fd1                	jal	102f8 <pull2>
   10326:	c298                	sw	a4,0(a3)

00010328 <drop1>:
   10328:	0791                	addi	a5,a5,4
   1032a:	a881                	j	1037a <save1>

0001032c <h_fetch>:
   1032c:	0001031c          	.word	0x0001031c
   10330:	0002b5e5          	.word	0x0002b5e5

00010334 <fetch>:
   10334:	37d1                	jal	102f8 <pull2>
   10336:	4294                	lw	a3,0(a3)
   10338:	a83d                	j	10376 <back1>

0001033a <h_nand>:
   1033a:	0001032c          	.word	0x0001032c
   1033e:	7c727500          	.word	0x7c727500

00010342 <nand>:
   10342:	3f5d                	jal	102f8 <pull2>
   10344:	8ef9                	and	a3,a3,a4
   10346:	fff6c693          	not	a3,a3
   1034a:	a03d                	j	10378 <keep1>

0001034c <h_plus>:
   1034c:	0001033a          	.word	0x0001033a
   10350:	0002b58e          	.word	0x0002b58e

00010354 <plus>:
   10354:	3755                	jal	102f8 <pull2>
   10356:	96ba                	add	a3,a3,a4
   10358:	a005                	j	10378 <keep1>

0001035a <h_zeroq>:
   1035a:	0001034c          	.word	0x0001034c
   1035e:	00596816          	.word	0x00596816

00010362 <zeroq>:
   10362:	3f59                	jal	102f8 <pull2>

00010364 <isfalse>:
   10364:	caa5                	beqz	a3,103d4 <next>

00010366 <istrue>:
   10366:	56fd                	li	a3,-1
   10368:	a039                	j	10376 <back1>

0001036a <h_userat>:
   1036a:	0001035a          	.word	0x0001035a
   1036e:	00596f90          	.word	0x00596f90

00010372 <userat>:
   10372:	86a2                	mv	a3,s0

00010374 <push1>:
   10374:	401c                	lw	a5,0(s0)

00010376 <back1>:
   10376:	17f1                	addi	a5,a5,-4

00010378 <keep1>:
   10378:	c394                	sw	a3,0(a5)

0001037a <save1>:
   1037a:	c01c                	sw	a5,0(s0)
   1037c:	a8a1                	j	103d4 <next>

0001037e <h_colon>:
   1037e:	0001036a          	.word	0x0001036a
   10382:	0002b59f          	.word	0x0002b59f

00010386 <colon>:
   10386:	4454                	lw	a3,12(s0)
   10388:	cc14                	sw	a3,24(s0)
   1038a:	4685                	li	a3,1
   1038c:	c854                	sw	a3,20(s0)

0001038e <create>:
   1038e:	4414                	lw	a3,8(s0)
   10390:	3f3d                	jal	102ce <docomma>
   10392:	357d                	jal	10240 <token>
   10394:	86aa                	mv	a3,a0

00010396 <comma>:
   10396:	1171                	addi	sp,sp,-4
   10398:	c006                	sw	ra,0(sp)
   1039a:	2291                	jal	104de <saves>
   1039c:	86b6                	mv	a3,a3
   1039e:	3ba9                	jal	100f8 <puthex>
   103a0:	2a89                	jal	104f2 <loads>
   103a2:	4082                	lw	ra,0(sp)
   103a4:	0111                	addi	sp,sp,4
   103a6:	3725                	jal	102ce <docomma>
   103a8:	a035                	j	103d4 <next>

000103aa <h_semis>:
   103aa:	0001037e          	.word	0x0001037e
   103ae:	8002b59e          	.word	0x8002b59e

000103b2 <semis>:
   103b2:	4c14                	lw	a3,24(s0)
   103b4:	c414                	sw	a3,8(s0)
   103b6:	00042a23          	sw	zero,20(s0)

000103ba <finish>:
   103ba:	00002697          	auipc	a3,0x2
   103be:	c326a683          	lw	a3,-974(a3) # 11fec <_GLOBAL_OFFSET_TABLE_+0x20>
   103c2:	bfd1                	j	10396 <comma>

000103c4 <h_exit>:
   103c4:	000103aa          	.word	0x000103aa
   103c8:	7c6bbe85          	.word	0x7c6bbe85

000103cc <exit>:
   103cc:	405c                	lw	a5,4(s0)
   103ce:	4384                	lw	s1,0(a5)
   103d0:	0791                	addi	a5,a5,4
   103d2:	c05c                	sw	a5,4(s0)

000103d4 <next>:
   103d4:	4094                	lw	a3,0(s1)
   103d6:	0491                	addi	s1,s1,4

000103d8 <pick>:
   103d8:	00002797          	auipc	a5,0x2
   103dc:	c187a783          	lw	a5,-1000(a5) # 11ff0 <_GLOBAL_OFFSET_TABLE_+0x24>
   103e0:	00f6d463          	bge	a3,a5,103e8 <nest>

000103e4 <jump>:
   103e4:	000680e7          	jalr	a3

000103e8 <nest>:
   103e8:	405c                	lw	a5,4(s0)
   103ea:	17f1                	addi	a5,a5,-4
   103ec:	c384                	sw	s1,0(a5)
   103ee:	c05c                	sw	a5,4(s0)

000103f0 <move>:
   103f0:	84b6                	mv	s1,a3
   103f2:	b7cd                	j	103d4 <next>

000103f4 <tickpt>:
   103f4:	000101c0          	.word	0x000101c0

000103f8 <_exit>:
   103f8:	4501                	li	a0,0
   103fa:	05d00893          	li	a7,93
   103fe:	00000073          	ecall

00010402 <_init>:
   10402:	8082                	ret

00010404 <_getc>:
   10404:	4501                	li	a0,0
   10406:	00002597          	auipc	a1,0x2
   1040a:	bee5a583          	lw	a1,-1042(a1) # 11ff4 <_GLOBAL_OFFSET_TABLE_+0x28>
   1040e:	4605                	li	a2,1
   10410:	03f00893          	li	a7,63
   10414:	00000073          	ecall
   10418:	00058683          	lb	a3,0(a1)
   1041c:	dd71                	beqz	a0,103f8 <_exit>

0001041e <_putc>:
   1041e:	4505                	li	a0,1
   10420:	00002597          	auipc	a1,0x2
   10424:	bd45a583          	lw	a1,-1068(a1) # 11ff4 <_GLOBAL_OFFSET_TABLE_+0x28>
   10428:	4605                	li	a2,1
   1042a:	04000893          	li	a7,64
   1042e:	00d58023          	sb	a3,0(a1)

00010432 <_rets>:
   10432:	00000073          	ecall
   10436:	8082                	ret

00010438 <h_sfr>:
   10438:	000103c4          	.word	0x000103c4
   1043c:	00596858          	.word	0x00596858

00010440 <sfr>:
   10440:	3d65                	jal	102f8 <pull2>
   10442:	8285                	srli	a3,a3,0x1
   10444:	bf15                	j	10378 <keep1>

00010446 <h_docode>:
   10446:	00010438          	.word	0x00010438
   1044a:	0059695b          	.word	0x0059695b

0001044e <docode>:
   1044e:	000480e7          	jalr	s1
   10452:	b749                	j	103d4 <next>

00010454 <h_donext>:
   10454:	00010446          	.word	0x00010446
   10458:	0059697a          	.word	0x0059697a

0001045c <donext>:
   1045c:	bfa5                	j	103d4 <next>

0001045e <h_byes>:
   1045e:	00010454          	.word	0x00010454
   10462:	0b874afb          	.word	0x0b874afb

00010466 <byes>:
   10466:	bf49                	j	103f8 <_exit>

00010468 <h_aborts>:
   10468:	0001045e          	.word	0x0001045e
   1046c:	0a1dff4f          	.word	0x0a1dff4f

00010470 <aborts>:
   10470:	bb25                	j	101a8 <abort>

00010472 <h_splist>:
   10472:	00010468          	.word	0x00010468
   10476:	005965d3          	.word	0x005965d3

0001047a <splist>:
   1047a:	2a11                	jal	1058e <stackS>
   1047c:	bfa1                	j	103d4 <next>

0001047e <h_rplist>:
   1047e:	00010472          	.word	0x00010472
   10482:	005965d2          	.word	0x005965d2

00010486 <rplist>:
   10486:	223d                	jal	105b4 <stackR>
   10488:	b7b1                	j	103d4 <next>

0001048a <h_dump>:
   1048a:	0001047e          	.word	0x0001047e
   1048e:	7c6b2fe9          	.word	0x7c6b2fe9

00010492 <dump>:
   10492:	359d                	jal	102f8 <pull2>
   10494:	00002697          	auipc	a3,0x2
   10498:	b4c6a683          	lw	a3,-1204(a3) # 11fe0 <_GLOBAL_OFFSET_TABLE_+0x14>
   1049c:	4458                	lw	a4,12(s0)
   1049e:	226d                	jal	10648 <dumps>
   104a0:	b561                	j	10328 <drop1>

000104a2 <h_words>:
   104a2:	0001048a          	.word	0x0001048a
   104a6:	0b6953f8          	.word	0x0b6953f8

000104aa <words>:
   104aa:	2095                	jal	1050e <wordf>
   104ac:	b725                	j	103d4 <next>

000104ae <h_sees>:
   104ae:	000104a2          	.word	0x000104a2
   104b2:	0b878f36          	.word	0x0b878f36

000104b6 <sees>:
   104b6:	2059                	jal	1053c <wordu>
   104b8:	bf31                	j	103d4 <next>

000104ba <h_dot>:
   104ba:	000104ae          	.word	0x000104ae
   104be:	0002b58b          	.word	0x0002b58b

000104c2 <dot>:
   104c2:	3d1d                	jal	102f8 <pull2>
   104c4:	21ad                	jal	1092e <puthexy>
   104c6:	82b6                	mv	t0,a3
   104c8:	02000693          	li	a3,32
   104cc:	3f89                	jal	1041e <_putc>
   104ce:	8696                	mv	a3,t0
   104d0:	b711                	j	103d4 <next>

000104d2 <from_extras>:
   104d2:	000104ba          	.word	0x000104ba
   104d6:	7c70b163          	.word	0x7c70b163

000104da <cell>:
   104da:	4691                	li	a3,4
   104dc:	bd61                	j	10374 <push1>

000104de <saves>:
   104de:	1101                	addi	sp,sp,-32
   104e0:	c02a                	sw	a0,0(sp)
   104e2:	c22e                	sw	a1,4(sp)
   104e4:	c432                	sw	a2,8(sp)
   104e6:	c636                	sw	a3,12(sp)
   104e8:	c83a                	sw	a4,16(sp)
   104ea:	ca3e                	sw	a5,20(sp)
   104ec:	cc42                	sw	a6,24(sp)
   104ee:	ce46                	sw	a7,28(sp)
   104f0:	8082                	ret

000104f2 <loads>:
   104f2:	4502                	lw	a0,0(sp)
   104f4:	4592                	lw	a1,4(sp)
   104f6:	4622                	lw	a2,8(sp)
   104f8:	46b2                	lw	a3,12(sp)
   104fa:	4742                	lw	a4,16(sp)
   104fc:	47d2                	lw	a5,20(sp)
   104fe:	4862                	lw	a6,24(sp)
   10500:	48f2                	lw	a7,28(sp)
   10502:	6105                	addi	sp,sp,32
   10504:	8082                	ret

00010506 <returns>:
   10506:	37f5                	jal	104f2 <loads>
   10508:	4082                	lw	ra,0(sp)
   1050a:	0111                	addi	sp,sp,4
   1050c:	8082                	ret

0001050e <wordf>:
   1050e:	1171                	addi	sp,sp,-4
   10510:	c006                	sw	ra,0(sp)
   10512:	37f1                	jal	104de <saves>
   10514:	441c                	lw	a5,8(s0)
   10516:	00c42803          	lw	a6,12(s0)
   1051a:	00002b97          	auipc	s7,0x2
   1051e:	ac6bab83          	lw	s7,-1338(s7) # 11fe0 <_GLOBAL_OFFSET_TABLE_+0x14>
   10522:	82b6                	mv	t0,a3
   10524:	46a9                	li	a3,10
   10526:	3de5                	jal	1041e <_putc>
   10528:	8696                	mv	a3,t0
   1052a:	dff1                	beqz	a5,10506 <returns>
   1052c:	fd77cde3          	blt	a5,s7,10506 <returns>
   10530:	8c3e                	mv	s8,a5
   10532:	2829                	jal	1054c <wordt>
   10534:	8862                	mv	a6,s8
   10536:	00082783          	lw	a5,0(a6)
   1053a:	bfc5                	j	1052a <wordf+0x1c>

0001053c <wordu>:
   1053c:	1171                	addi	sp,sp,-4
   1053e:	c006                	sw	ra,0(sp)
   10540:	3f79                	jal	104de <saves>
   10542:	441c                	lw	a5,8(s0)
   10544:	00c42803          	lw	a6,12(s0)
   10548:	2011                	jal	1054c <wordt>
   1054a:	bf75                	j	10506 <returns>

0001054c <wordt>:
   1054c:	1171                	addi	sp,sp,-4
   1054e:	c006                	sw	ra,0(sp)
   10550:	82b6                	mv	t0,a3
   10552:	46a9                	li	a3,10
   10554:	35e9                	jal	1041e <_putc>
   10556:	8696                	mv	a3,t0
   10558:	1171                	addi	sp,sp,-4
   1055a:	c006                	sw	ra,0(sp)
   1055c:	3749                	jal	104de <saves>
   1055e:	86be                	mv	a3,a5
   10560:	3e61                	jal	100f8 <puthex>
   10562:	3f41                	jal	104f2 <loads>
   10564:	4082                	lw	ra,0(sp)
   10566:	0111                	addi	sp,sp,4
   10568:	4398                	lw	a4,0(a5)
   1056a:	1171                	addi	sp,sp,-4
   1056c:	c006                	sw	ra,0(sp)
   1056e:	3f85                	jal	104de <saves>
   10570:	86ba                	mv	a3,a4
   10572:	3659                	jal	100f8 <puthex>
   10574:	3fbd                	jal	104f2 <loads>
   10576:	4082                	lw	ra,0(sp)
   10578:	0111                	addi	sp,sp,4
   1057a:	0791                	addi	a5,a5,4
   1057c:	fd079ae3          	bne	a5,a6,10550 <wordt+0x4>
   10580:	82b6                	mv	t0,a3
   10582:	46a9                	li	a3,10
   10584:	3d69                	jal	1041e <_putc>
   10586:	8696                	mv	a3,t0
   10588:	4082                	lw	ra,0(sp)
   1058a:	0111                	addi	sp,sp,4
   1058c:	8082                	ret

0001058e <stackS>:
   1058e:	1171                	addi	sp,sp,-4
   10590:	c006                	sw	ra,0(sp)
   10592:	37b1                	jal	104de <saves>
   10594:	82b6                	mv	t0,a3
   10596:	46a9                	li	a3,10
   10598:	3559                	jal	1041e <_putc>
   1059a:	8696                	mv	a3,t0
   1059c:	82b6                	mv	t0,a3
   1059e:	05300693          	li	a3,83
   105a2:	3db5                	jal	1041e <_putc>
   105a4:	8696                	mv	a3,t0
   105a6:	401c                	lw	a5,0(s0)
   105a8:	00002817          	auipc	a6,0x2
   105ac:	a2c82803          	lw	a6,-1492(a6) # 11fd4 <_GLOBAL_OFFSET_TABLE_+0x8>
   105b0:	202d                	jal	105da <stackp>
   105b2:	bf91                	j	10506 <returns>

000105b4 <stackR>:
   105b4:	1171                	addi	sp,sp,-4
   105b6:	c006                	sw	ra,0(sp)
   105b8:	371d                	jal	104de <saves>
   105ba:	82b6                	mv	t0,a3
   105bc:	46a9                	li	a3,10
   105be:	3585                	jal	1041e <_putc>
   105c0:	8696                	mv	a3,t0
   105c2:	82b6                	mv	t0,a3
   105c4:	05200693          	li	a3,82
   105c8:	3d99                	jal	1041e <_putc>
   105ca:	8696                	mv	a3,t0
   105cc:	405c                	lw	a5,4(s0)
   105ce:	00002817          	auipc	a6,0x2
   105d2:	a0a82803          	lw	a6,-1526(a6) # 11fd8 <_GLOBAL_OFFSET_TABLE_+0xc>
   105d6:	2011                	jal	105da <stackp>
   105d8:	b73d                	j	10506 <returns>

000105da <stackp>:
   105da:	1171                	addi	sp,sp,-4
   105dc:	c006                	sw	ra,0(sp)
   105de:	82b6                	mv	t0,a3
   105e0:	03d00693          	li	a3,61
   105e4:	3d2d                	jal	1041e <_putc>
   105e6:	8696                	mv	a3,t0
   105e8:	1171                	addi	sp,sp,-4
   105ea:	c006                	sw	ra,0(sp)
   105ec:	3dcd                	jal	104de <saves>
   105ee:	86be                	mv	a3,a5
   105f0:	3621                	jal	100f8 <puthex>
   105f2:	3701                	jal	104f2 <loads>
   105f4:	4082                	lw	ra,0(sp)
   105f6:	0111                	addi	sp,sp,4
   105f8:	1171                	addi	sp,sp,-4
   105fa:	c006                	sw	ra,0(sp)
   105fc:	35cd                	jal	104de <saves>
   105fe:	86c2                	mv	a3,a6
   10600:	3ce5                	jal	100f8 <puthex>
   10602:	3dc5                	jal	104f2 <loads>
   10604:	4082                	lw	ra,0(sp)
   10606:	0111                	addi	sp,sp,4
   10608:	82b6                	mv	t0,a3
   1060a:	05b00693          	li	a3,91
   1060e:	3d01                	jal	1041e <_putc>
   10610:	8696                	mv	a3,t0
   10612:	01078e63          	beq	a5,a6,1062e <stackp+0x54>
   10616:	4398                	lw	a4,0(a5)
   10618:	1171                	addi	sp,sp,-4
   1061a:	c006                	sw	ra,0(sp)
   1061c:	35c9                	jal	104de <saves>
   1061e:	86ba                	mv	a3,a4
   10620:	3ce1                	jal	100f8 <puthex>
   10622:	3dc1                	jal	104f2 <loads>
   10624:	4082                	lw	ra,0(sp)
   10626:	0111                	addi	sp,sp,4
   10628:	0791                	addi	a5,a5,4
   1062a:	ff07c6e3          	blt	a5,a6,10616 <stackp+0x3c>
   1062e:	82b6                	mv	t0,a3
   10630:	02000693          	li	a3,32
   10634:	33ed                	jal	1041e <_putc>
   10636:	8696                	mv	a3,t0
   10638:	82b6                	mv	t0,a3
   1063a:	05d00693          	li	a3,93
   1063e:	33c5                	jal	1041e <_putc>
   10640:	8696                	mv	a3,t0
   10642:	4082                	lw	ra,0(sp)
   10644:	0111                	addi	sp,sp,4
   10646:	8082                	ret

00010648 <dumps>:
   10648:	1171                	addi	sp,sp,-4
   1064a:	c006                	sw	ra,0(sp)
   1064c:	3d49                	jal	104de <saves>
   1064e:	87b6                	mv	a5,a3
   10650:	883a                	mv	a6,a4
   10652:	4ea1                	li	t4,8
   10654:	82b6                	mv	t0,a3
   10656:	46a9                	li	a3,10
   10658:	33d9                	jal	1041e <_putc>
   1065a:	8696                	mv	a3,t0
   1065c:	1171                	addi	sp,sp,-4
   1065e:	c006                	sw	ra,0(sp)
   10660:	3dbd                	jal	104de <saves>
   10662:	86be                	mv	a3,a5
   10664:	3c51                	jal	100f8 <puthex>
   10666:	3571                	jal	104f2 <loads>
   10668:	4082                	lw	ra,0(sp)
   1066a:	0111                	addi	sp,sp,4
   1066c:	82b6                	mv	t0,a3
   1066e:	03a00693          	li	a3,58
   10672:	3375                	jal	1041e <_putc>
   10674:	8696                	mv	a3,t0
   10676:	82b6                	mv	t0,a3
   10678:	02000693          	li	a3,32
   1067c:	334d                	jal	1041e <_putc>
   1067e:	8696                	mv	a3,t0
   10680:	4398                	lw	a4,0(a5)
   10682:	1171                	addi	sp,sp,-4
   10684:	c006                	sw	ra,0(sp)
   10686:	3da1                	jal	104de <saves>
   10688:	86ba                	mv	a3,a4
   1068a:	34bd                	jal	100f8 <puthex>
   1068c:	359d                	jal	104f2 <loads>
   1068e:	4082                	lw	ra,0(sp)
   10690:	0111                	addi	sp,sp,4
   10692:	0791                	addi	a5,a5,4
   10694:	1efd                	addi	t4,t4,-1
   10696:	fa0e8ee3          	beqz	t4,10652 <dumps+0xa>
   1069a:	ff07c3e3          	blt	a5,a6,10680 <dumps+0x38>
   1069e:	b5a5                	j	10506 <returns>

000106a0 <shows>:
   106a0:	1171                	addi	sp,sp,-4
   106a2:	c006                	sw	ra,0(sp)
   106a4:	3d2d                	jal	104de <saves>
   106a6:	82b6                	mv	t0,a3
   106a8:	46a9                	li	a3,10
   106aa:	3b95                	jal	1041e <_putc>
   106ac:	8696                	mv	a3,t0
   106ae:	82b6                	mv	t0,a3
   106b0:	05200693          	li	a3,82
   106b4:	33ad                	jal	1041e <_putc>
   106b6:	8696                	mv	a3,t0
   106b8:	82b6                	mv	t0,a3
   106ba:	02000693          	li	a3,32
   106be:	3385                	jal	1041e <_putc>
   106c0:	8696                	mv	a3,t0
   106c2:	82b6                	mv	t0,a3
   106c4:	03000693          	li	a3,48
   106c8:	3b99                	jal	1041e <_putc>
   106ca:	8696                	mv	a3,t0
   106cc:	82b6                	mv	t0,a3
   106ce:	02000693          	li	a3,32
   106d2:	33b1                	jal	1041e <_putc>
   106d4:	8696                	mv	a3,t0
   106d6:	1171                	addi	sp,sp,-4
   106d8:	c006                	sw	ra,0(sp)
   106da:	3511                	jal	104de <saves>
   106dc:	8696                	mv	a3,t0
   106de:	a1bff0ef          	jal	100f8 <puthex>
   106e2:	3d01                	jal	104f2 <loads>
   106e4:	4082                	lw	ra,0(sp)
   106e6:	0111                	addi	sp,sp,4
   106e8:	82b6                	mv	t0,a3
   106ea:	03100693          	li	a3,49
   106ee:	3b05                	jal	1041e <_putc>
   106f0:	8696                	mv	a3,t0
   106f2:	82b6                	mv	t0,a3
   106f4:	02000693          	li	a3,32
   106f8:	331d                	jal	1041e <_putc>
   106fa:	8696                	mv	a3,t0
   106fc:	1171                	addi	sp,sp,-4
   106fe:	c006                	sw	ra,0(sp)
   10700:	3bf9                	jal	104de <saves>
   10702:	869a                	mv	a3,t1
   10704:	9f5ff0ef          	jal	100f8 <puthex>
   10708:	33ed                	jal	104f2 <loads>
   1070a:	4082                	lw	ra,0(sp)
   1070c:	0111                	addi	sp,sp,4
   1070e:	82b6                	mv	t0,a3
   10710:	03200693          	li	a3,50
   10714:	3329                	jal	1041e <_putc>
   10716:	8696                	mv	a3,t0
   10718:	82b6                	mv	t0,a3
   1071a:	02000693          	li	a3,32
   1071e:	3301                	jal	1041e <_putc>
   10720:	8696                	mv	a3,t0
   10722:	1171                	addi	sp,sp,-4
   10724:	c006                	sw	ra,0(sp)
   10726:	3b65                	jal	104de <saves>
   10728:	869e                	mv	a3,t2
   1072a:	9cfff0ef          	jal	100f8 <puthex>
   1072e:	33d1                	jal	104f2 <loads>
   10730:	4082                	lw	ra,0(sp)
   10732:	0111                	addi	sp,sp,4
   10734:	82b6                	mv	t0,a3
   10736:	03300693          	li	a3,51
   1073a:	31d5                	jal	1041e <_putc>
   1073c:	8696                	mv	a3,t0
   1073e:	82b6                	mv	t0,a3
   10740:	02000693          	li	a3,32
   10744:	39e9                	jal	1041e <_putc>
   10746:	8696                	mv	a3,t0
   10748:	1171                	addi	sp,sp,-4
   1074a:	c006                	sw	ra,0(sp)
   1074c:	3b49                	jal	104de <saves>
   1074e:	86f2                	mv	a3,t3
   10750:	9a9ff0ef          	jal	100f8 <puthex>
   10754:	3b79                	jal	104f2 <loads>
   10756:	4082                	lw	ra,0(sp)
   10758:	0111                	addi	sp,sp,4
   1075a:	82b6                	mv	t0,a3
   1075c:	03400693          	li	a3,52
   10760:	397d                	jal	1041e <_putc>
   10762:	8696                	mv	a3,t0
   10764:	82b6                	mv	t0,a3
   10766:	02000693          	li	a3,32
   1076a:	3955                	jal	1041e <_putc>
   1076c:	8696                	mv	a3,t0
   1076e:	1171                	addi	sp,sp,-4
   10770:	c006                	sw	ra,0(sp)
   10772:	33b5                	jal	104de <saves>
   10774:	86f6                	mv	a3,t4
   10776:	983ff0ef          	jal	100f8 <puthex>
   1077a:	3ba5                	jal	104f2 <loads>
   1077c:	4082                	lw	ra,0(sp)
   1077e:	0111                	addi	sp,sp,4
   10780:	82b6                	mv	t0,a3
   10782:	03500693          	li	a3,53
   10786:	3961                	jal	1041e <_putc>
   10788:	8696                	mv	a3,t0
   1078a:	82b6                	mv	t0,a3
   1078c:	02000693          	li	a3,32
   10790:	3179                	jal	1041e <_putc>
   10792:	8696                	mv	a3,t0
   10794:	1171                	addi	sp,sp,-4
   10796:	c006                	sw	ra,0(sp)
   10798:	3399                	jal	104de <saves>
   1079a:	86fa                	mv	a3,t5
   1079c:	95dff0ef          	jal	100f8 <puthex>
   107a0:	3b89                	jal	104f2 <loads>
   107a2:	4082                	lw	ra,0(sp)
   107a4:	0111                	addi	sp,sp,4
   107a6:	82b6                	mv	t0,a3
   107a8:	03600693          	li	a3,54
   107ac:	398d                	jal	1041e <_putc>
   107ae:	8696                	mv	a3,t0
   107b0:	82b6                	mv	t0,a3
   107b2:	02000693          	li	a3,32
   107b6:	31a5                	jal	1041e <_putc>
   107b8:	8696                	mv	a3,t0
   107ba:	1171                	addi	sp,sp,-4
   107bc:	c006                	sw	ra,0(sp)
   107be:	3305                	jal	104de <saves>
   107c0:	86fe                	mv	a3,t6
   107c2:	937ff0ef          	jal	100f8 <puthex>
   107c6:	3335                	jal	104f2 <loads>
   107c8:	4082                	lw	ra,0(sp)
   107ca:	0111                	addi	sp,sp,4
   107cc:	82b6                	mv	t0,a3
   107ce:	46a9                	li	a3,10
   107d0:	31b9                	jal	1041e <_putc>
   107d2:	8696                	mv	a3,t0
   107d4:	82b6                	mv	t0,a3
   107d6:	05500693          	li	a3,85
   107da:	3191                	jal	1041e <_putc>
   107dc:	8696                	mv	a3,t0
   107de:	82b6                	mv	t0,a3
   107e0:	02000693          	li	a3,32
   107e4:	392d                	jal	1041e <_putc>
   107e6:	8696                	mv	a3,t0
   107e8:	82b6                	mv	t0,a3
   107ea:	05300693          	li	a3,83
   107ee:	3905                	jal	1041e <_putc>
   107f0:	8696                	mv	a3,t0
   107f2:	82b6                	mv	t0,a3
   107f4:	02000693          	li	a3,32
   107f8:	311d                	jal	1041e <_putc>
   107fa:	8696                	mv	a3,t0
   107fc:	4854                	lw	a3,20(s0)
   107fe:	1171                	addi	sp,sp,-4
   10800:	c006                	sw	ra,0(sp)
   10802:	39f1                	jal	104de <saves>
   10804:	86b6                	mv	a3,a3
   10806:	8f3ff0ef          	jal	100f8 <puthex>
   1080a:	31e5                	jal	104f2 <loads>
   1080c:	4082                	lw	ra,0(sp)
   1080e:	0111                	addi	sp,sp,4
   10810:	82b6                	mv	t0,a3
   10812:	04c00693          	li	a3,76
   10816:	3121                	jal	1041e <_putc>
   10818:	8696                	mv	a3,t0
   1081a:	82b6                	mv	t0,a3
   1081c:	02000693          	li	a3,32
   10820:	3efd                	jal	1041e <_putc>
   10822:	8696                	mv	a3,t0
   10824:	4414                	lw	a3,8(s0)
   10826:	1171                	addi	sp,sp,-4
   10828:	c006                	sw	ra,0(sp)
   1082a:	3955                	jal	104de <saves>
   1082c:	86b6                	mv	a3,a3
   1082e:	8cbff0ef          	jal	100f8 <puthex>
   10832:	31c1                	jal	104f2 <loads>
   10834:	4082                	lw	ra,0(sp)
   10836:	0111                	addi	sp,sp,4
   10838:	82b6                	mv	t0,a3
   1083a:	04800693          	li	a3,72
   1083e:	36c5                	jal	1041e <_putc>
   10840:	8696                	mv	a3,t0
   10842:	82b6                	mv	t0,a3
   10844:	02000693          	li	a3,32
   10848:	3ed9                	jal	1041e <_putc>
   1084a:	8696                	mv	a3,t0
   1084c:	4454                	lw	a3,12(s0)
   1084e:	1171                	addi	sp,sp,-4
   10850:	c006                	sw	ra,0(sp)
   10852:	3171                	jal	104de <saves>
   10854:	86b6                	mv	a3,a3
   10856:	8a3ff0ef          	jal	100f8 <puthex>
   1085a:	3961                	jal	104f2 <loads>
   1085c:	4082                	lw	ra,0(sp)
   1085e:	0111                	addi	sp,sp,4
   10860:	82b6                	mv	t0,a3
   10862:	04400693          	li	a3,68
   10866:	3e65                	jal	1041e <_putc>
   10868:	8696                	mv	a3,t0
   1086a:	82b6                	mv	t0,a3
   1086c:	02000693          	li	a3,32
   10870:	367d                	jal	1041e <_putc>
   10872:	8696                	mv	a3,t0
   10874:	4c14                	lw	a3,24(s0)
   10876:	1171                	addi	sp,sp,-4
   10878:	c006                	sw	ra,0(sp)
   1087a:	3195                	jal	104de <saves>
   1087c:	86b6                	mv	a3,a3
   1087e:	87bff0ef          	jal	100f8 <puthex>
   10882:	3985                	jal	104f2 <loads>
   10884:	4082                	lw	ra,0(sp)
   10886:	0111                	addi	sp,sp,4
   10888:	82b6                	mv	t0,a3
   1088a:	05300693          	li	a3,83
   1088e:	3e41                	jal	1041e <_putc>
   10890:	8696                	mv	a3,t0
   10892:	82b6                	mv	t0,a3
   10894:	05000693          	li	a3,80
   10898:	3659                	jal	1041e <_putc>
   1089a:	8696                	mv	a3,t0
   1089c:	82b6                	mv	t0,a3
   1089e:	02000693          	li	a3,32
   108a2:	3eb5                	jal	1041e <_putc>
   108a4:	8696                	mv	a3,t0
   108a6:	4014                	lw	a3,0(s0)
   108a8:	1171                	addi	sp,sp,-4
   108aa:	c006                	sw	ra,0(sp)
   108ac:	390d                	jal	104de <saves>
   108ae:	86b6                	mv	a3,a3
   108b0:	849ff0ef          	jal	100f8 <puthex>
   108b4:	393d                	jal	104f2 <loads>
   108b6:	4082                	lw	ra,0(sp)
   108b8:	0111                	addi	sp,sp,4
   108ba:	82b6                	mv	t0,a3
   108bc:	05200693          	li	a3,82
   108c0:	3eb9                	jal	1041e <_putc>
   108c2:	8696                	mv	a3,t0
   108c4:	82b6                	mv	t0,a3
   108c6:	05000693          	li	a3,80
   108ca:	3e91                	jal	1041e <_putc>
   108cc:	8696                	mv	a3,t0
   108ce:	82b6                	mv	t0,a3
   108d0:	02000693          	li	a3,32
   108d4:	36a9                	jal	1041e <_putc>
   108d6:	8696                	mv	a3,t0
   108d8:	4054                	lw	a3,4(s0)
   108da:	1171                	addi	sp,sp,-4
   108dc:	c006                	sw	ra,0(sp)
   108de:	3101                	jal	104de <saves>
   108e0:	86b6                	mv	a3,a3
   108e2:	817ff0ef          	jal	100f8 <puthex>
   108e6:	3131                	jal	104f2 <loads>
   108e8:	4082                	lw	ra,0(sp)
   108ea:	0111                	addi	sp,sp,4
   108ec:	b929                	j	10506 <returns>

000108ee <number>:
   108ee:	1171                	addi	sp,sp,-4
   108f0:	c006                	sw	ra,0(sp)
   108f2:	36f5                	jal	104de <saves>
   108f4:	00000633          	add	a2,zero,zero
   108f8:	00800593          	li	a1,8
   108fc:	4394                	lw	a3,0(a5)
   108fe:	01068763          	beq	a3,a6,1090c <number+0x1e>
   10902:	2031                	jal	1090e <digit>
   10904:	0612                	slli	a2,a2,0x4
   10906:	8e55                	or	a2,a2,a3
   10908:	15fd                	addi	a1,a1,-1
   1090a:	f9ed                	bnez	a1,108fc <number+0xe>
   1090c:	beed                	j	10506 <returns>

0001090e <digit>:
   1090e:	fd068693          	addi	a3,a3,-48
   10912:	0006cb63          	bltz	a3,10928 <digit+0x1a>
   10916:	05a00713          	li	a4,90
   1091a:	00d74763          	blt	a4,a3,10928 <digit+0x1a>
   1091e:	4729                	li	a4,10
   10920:	00e6c363          	blt	a3,a4,10926 <digit+0x18>
   10924:	069d                	addi	a3,a3,7
   10926:	8082                	ret
   10928:	000006b3          	add	a3,zero,zero
   1092c:	8082                	ret

0001092e <puthexy>:
   1092e:	1171                	addi	sp,sp,-4
   10930:	c006                	sw	ra,0(sp)
   10932:	8936                	mv	s2,a3
   10934:	03a00a93          	li	s5,58
   10938:	02000693          	li	a3,32
   1093c:	ae3ff0ef          	jal	1041e <_putc>
   10940:	01895993          	srli	s3,s2,0x18
   10944:	2831                	jal	10960 <puthexy+0x32>
   10946:	01095993          	srli	s3,s2,0x10
   1094a:	2819                	jal	10960 <puthexy+0x32>
   1094c:	00895993          	srli	s3,s2,0x8
   10950:	2801                	jal	10960 <puthexy+0x32>
   10952:	00095993          	srli	s3,s2,0x0
   10956:	2029                	jal	10960 <puthexy+0x32>
   10958:	86ca                	mv	a3,s2
   1095a:	4082                	lw	ra,0(sp)
   1095c:	0111                	addi	sp,sp,4
   1095e:	8082                	ret
   10960:	1171                	addi	sp,sp,-4
   10962:	c006                	sw	ra,0(sp)
   10964:	0ff9f993          	zext.b	s3,s3
   10968:	0049da13          	srli	s4,s3,0x4
   1096c:	2039                	jal	1097a <puthexy+0x4c>
   1096e:	0009da13          	srli	s4,s3,0x0
   10972:	2021                	jal	1097a <puthexy+0x4c>
   10974:	4082                	lw	ra,0(sp)
   10976:	0111                	addi	sp,sp,4
   10978:	8082                	ret
   1097a:	1171                	addi	sp,sp,-4
   1097c:	c006                	sw	ra,0(sp)
   1097e:	00fa7a13          	andi	s4,s4,15
   10982:	030a6a13          	ori	s4,s4,48
   10986:	015a4363          	blt	s4,s5,1098c <puthexy+0x5e>
   1098a:	0a1d                	addi	s4,s4,7
   1098c:	86d2                	mv	a3,s4
   1098e:	a91ff0ef          	jal	1041e <_putc>
   10992:	4082                	lw	ra,0(sp)
   10994:	0111                	addi	sp,sp,4
   10996:	8082                	ret

00010998 <ends>:
	...
