
sector-riscv.elf:     file format elf32-littleriscv
sector-riscv.elf

Sections:
Idx Name          Size      VMA       LMA       File off  Algn
  0 .note.gnu.build-id 00000024  000100d4  000100d4  000000d4  2**2
                  CONTENTS, ALLOC, LOAD, READONLY, DATA
  1 .text         000005b0  000100f8  000100f8  000000f8  2**2
                  CONTENTS, ALLOC, LOAD, READONLY, CODE
  2 .got          0000002c  00011fcc  00011fcc  00000fcc  2**2
                  CONTENTS, ALLOC, LOAD, DATA
  3 .got.plt      00000008  00011ff8  00011ff8  00000ff8  2**2
                  CONTENTS, ALLOC, LOAD, DATA
  4 .bss          000001a0  00012000  00012000  00001000  2**2
                  ALLOC
  5 .riscv.attributes 0000001f  00000000  00000000  00001000  2**0
                  CONTENTS, READONLY
SYMBOL TABLE:
000100d4 l    d  .note.gnu.build-id	00000000 .note.gnu.build-id
000100f8 l    d  .text	00000000 .text
00011fcc l    d  .got	00000000 .got
00011ff8 l    d  .got.plt	00000000 .got.plt
00012000 l    d  .bss	00000000 .bss
00000000 l    d  .riscv.attributes	00000000 .riscv.attributes
00000000 l    df *ABS*	00000000 ccdZVk9U.o
00000000 l       *ABS*	00000000 FALSE
ffffffff l       *ABS*	00000000 TRUE
00000001 l       *ABS*	00000000 ONE
00000002 l       *ABS*	00000000 TWO
00000004 l       *ABS*	00000000 CELL
0000000a l       *ABS*	00000000 NLC
00000020 l       *ABS*	00000000 SPC
00000090 l       *ABS*	00000000 spz
00000090 l       *ABS*	00000000 rpz
00000050 l       *ABS*	00000000 tibz
0b876d32 l       *ABS*	00000000 hash_key
7c6b87d0 l       *ABS*	00000000 hash_emit
0002b584 l       *ABS*	00000000 hash_store
0002b5e5 l       *ABS*	00000000 hash_fetch
7c727500 l       *ABS*	00000000 hash_nand
0002b58e l       *ABS*	00000000 hash_plus
00596816 l       *ABS*	00000000 hash_notzero
005970d6 l       *ABS*	00000000 hash_userat
0002b59f l       *ABS*	00000000 hash_colon
8002b59e l       *ABS*	00000000 hash_semis
7c6bbe85 l       *ABS*	00000000 hash_exit
80000000 l       *ABS*	00000000 FLAG_IMM
7fffffff l       *ABS*	00000000 MASK_IMM
00000000 l       *ABS*	00000000 STAT
00000004 l       *ABS*	00000000 TOIN
00000008 l       *ABS*	00000000 LAST
0000000c l       *ABS*	00000000 HERE
00000010 l       *ABS*	00000000 SPTR
00000014 l       *ABS*	00000000 RPTR
00000018 l       *ABS*	00000000 HEAD
0000001c l       *ABS*	00000000 TAIL
00012000 l       .bss	00000000 _user
00012020 l       .bss	00000000 _tib
00012070 l       .bss	00000000 _spb
00012100 l       .bss	00000000 sp0
00012104 l       .bss	00000000 _rpb
00012194 l       .bss	00000000 rp0
00012198 l       .bss	00000000 h_here
000100f8 l       .text	00000000 main
000103ce l       .text	00000000 puthex
000103b6 l       .text	00000000 _putc
00010108 l       .text	00000000 cold
0001011a l       .text	00000000 warm
00010354 l       .text	00000000 h_last
00010142 l       .text	00000000 reset
0001015a l       .text	00000000 error
0001016e l       .text	00000000 abort
00010182 l       .text	00000000 quit
000101a0 l       .text	00000000 okey
0001019c l       .text	00000000 resolvept
0001061e l       .text	00000000 stackS
0001063e l       .text	00000000 stackR
000101ba l       .text	00000000 resolve
000101ea l       .text	00000000 token
000101bc l       .text	00000000 tick
000101d6 l       .text	00000000 eval
000101e0 l       .text	00000000 immediate
000101e0 l       .text	00000000 execute
000101dc l       .text	00000000 compile
00010268 l       .text	00000000 comma
0001036e l       .text	00000000 pick
00010204 l       .text	00000000 gets
00010230 l       .text	00000000 hash
0001039c l       .text	00000000 _getc
00010246 l       .text	00000000 djb2
00010232 l       .text	00000000 mask
00001505 l       *ABS*	00000000 DJB2
00010278 l       .text	00000000 pull2
0001028a l       .text	00000000 h_key
00010292 l       .text	00000000 key
00010304 l       .text	00000000 push1
00010298 l       .text	00000000 h_emit
000102a0 l       .text	00000000 emit
0001030e l       .text	00000000 save1
000102a8 l       .text	00000000 h_store
000102b0 l       .text	00000000 store
000102b4 l       .text	00000000 drop1
000102ba l       .text	00000000 h_fetch
000102c2 l       .text	00000000 fetch
00010308 l       .text	00000000 back1
000102c8 l       .text	00000000 h_nand
000102d0 l       .text	00000000 nand
0001030a l       .text	00000000 keep1
000102da l       .text	00000000 h_plus
000102e2 l       .text	00000000 plus
000102e8 l       .text	00000000 h_zeroq
000102f0 l       .text	00000000 zeroq
000102f2 l       .text	00000000 isfalse
0001036a l       .text	00000000 next
000102f4 l       .text	00000000 istrue
000102fa l       .text	00000000 h_state
00010302 l       .text	00000000 state
00010316 l       .text	00000000 h_colon
0001031e l       .text	00000000 colon
00010330 l       .text	00000000 finish
00010334 l       .text	00000000 h_semis
0001033c l       .text	00000000 semis
0001035c l       .text	00000000 exit
0001047c l       .text	00000000 wordu
00010354 l       .text	00000000 h_exit
0001035c l       .text	00000000 unnest
000106a2 l       .text	00000000 ends
0001038c l       .text	00000000 jump
0001037a l       .text	00000000 nest
00010388 l       .text	00000000 move
00000000 l       *ABS*	00000000 _ZERO
00000001 l       *ABS*	00000000 _ONE
00000000 l       *ABS*	00000000 _STDIN
00000001 l       *ABS*	00000000 _STDOUT
0000003f l       *ABS*	00000000 _GETC
00000040 l       *ABS*	00000000 _PUTC
0000005d l       *ABS*	00000000 _EXIT
0001219c l       .bss	00000000 _char
00010390 l       .text	00000000 _exit
0001039a l       .text	00000000 _init
0001042c l       .text	00000000 saves
0001043e l       .text	00000000 loads
00010454 l       .text	00000000 words
00010488 l       .text	00000000 wordt
000104c0 l       .text	00000000 shows
0001065e l       .text	00000000 stackp
00011fcc l     O .got	00000000 _GLOBAL_OFFSET_TABLE_
00012800 g       *ABS*	00000000 __global_pointer$
00012000 g       .got.plt	00000000 __SDATA_BEGIN__
000100f8 g       .text	00000000 _start
000121a0 g       .bss	00000000 __BSS_END__
00012000 g       .bss	00000000 __bss_start
00012000 g       .got.plt	00000000 __DATA_BEGIN__
00012000 g       .got.plt	00000000 _edata
000121a0 g       .bss	00000000 _end



Disassembly of section .text:

000100f8 <_start>:
   100f8:	0ff0000f          	fence
   100fc:	868a                	mv	a3,sp
   100fe:	2cc1                	jal	103ce <puthex>
   10100:	02000693          	li	a3,32
   10104:	2c4d                	jal	103b6 <_putc>
   10106:	a009                	j	10108 <cold>

00010108 <cold>:
   10108:	00002417          	auipc	s0,0x2
   1010c:	ec842403          	lw	s0,-312(s0) # 11fd0 <_GLOBAL_OFFSET_TABLE_+0x4>
   10110:	86a2                	mv	a3,s0
   10112:	2c75                	jal	103ce <puthex>
   10114:	02000693          	li	a3,32
   10118:	2c79                	jal	103b6 <_putc>

0001011a <warm>:
   1011a:	00002697          	auipc	a3,0x2
   1011e:	eca6a683          	lw	a3,-310(a3) # 11fe4 <_GLOBAL_OFFSET_TABLE_+0x18>
   10122:	c414                	sw	a3,8(s0)
   10124:	86b6                	mv	a3,a3
   10126:	2465                	jal	103ce <puthex>
   10128:	02000693          	li	a3,32
   1012c:	2469                	jal	103b6 <_putc>
   1012e:	00002697          	auipc	a3,0x2
   10132:	eb26a683          	lw	a3,-334(a3) # 11fe0 <_GLOBAL_OFFSET_TABLE_+0x14>
   10136:	c454                	sw	a3,12(s0)
   10138:	86b6                	mv	a3,a3
   1013a:	2c51                	jal	103ce <puthex>
   1013c:	02000693          	li	a3,32
   10140:	2c9d                	jal	103b6 <_putc>

00010142 <reset>:
   10142:	00002697          	auipc	a3,0x2
   10146:	e926a683          	lw	a3,-366(a3) # 11fd4 <_GLOBAL_OFFSET_TABLE_+0x8>
   1014a:	0006a023          	sw	zero,0(a3)
   1014e:	c054                	sw	a3,4(s0)
   10150:	86b6                	mv	a3,a3
   10152:	2cb5                	jal	103ce <puthex>
   10154:	02000693          	li	a3,32
   10158:	2cb9                	jal	103b6 <_putc>

0001015a <error>:
   1015a:	46a9                	li	a3,10
   1015c:	2ca9                	jal	103b6 <_putc>
   1015e:	03f00693          	li	a3,63
   10162:	2c91                	jal	103b6 <_putc>
   10164:	03f00693          	li	a3,63
   10168:	24b9                	jal	103b6 <_putc>
   1016a:	46a9                	li	a3,10
   1016c:	24a9                	jal	103b6 <_putc>

0001016e <abort>:
   1016e:	00002697          	auipc	a3,0x2
   10172:	e6a6a683          	lw	a3,-406(a3) # 11fd8 <_GLOBAL_OFFSET_TABLE_+0xc>
   10176:	c814                	sw	a3,16(s0)
   10178:	86b6                	mv	a3,a3
   1017a:	2c91                	jal	103ce <puthex>
   1017c:	02000693          	li	a3,32
   10180:	2c1d                	jal	103b6 <_putc>

00010182 <quit>:
   10182:	00002697          	auipc	a3,0x2
   10186:	e5a6a683          	lw	a3,-422(a3) # 11fdc <_GLOBAL_OFFSET_TABLE_+0x10>
   1018a:	c854                	sw	a3,20(s0)
   1018c:	86b6                	mv	a3,a3
   1018e:	2481                	jal	103ce <puthex>
   10190:	02000693          	li	a3,32
   10194:	240d                	jal	103b6 <_putc>
   10196:	00042023          	sw	zero,0(s0)
   1019a:	a019                	j	101a0 <okey>

0001019c <resolvept>:
   1019c:	000101a0          	.word	0x000101a0

000101a0 <okey>:
   101a0:	29bd                	jal	1061e <stackS>
   101a2:	2971                	jal	1063e <stackR>
   101a4:	02000693          	li	a3,32
   101a8:	2439                	jal	103b6 <_putc>
   101aa:	04f00693          	li	a3,79
   101ae:	2421                	jal	103b6 <_putc>
   101b0:	04b00693          	li	a3,75
   101b4:	2409                	jal	103b6 <_putc>
   101b6:	46a9                	li	a3,10
   101b8:	2afd                	jal	103b6 <_putc>

000101ba <resolve>:
   101ba:	2805                	jal	101ea <token>

000101bc <tick>:
   101bc:	440c                	lw	a1,8(s0)
   101be:	ddd1                	beqz	a1,1015a <error>
   101c0:	862e                	mv	a2,a1
   101c2:	420c                	lw	a1,0(a2)
   101c4:	0611                	addi	a2,a2,4
   101c6:	4214                	lw	a3,0(a2)
   101c8:	80000737          	lui	a4,0x80000
   101cc:	8f75                	and	a4,a4,a3
   101ce:	8eb9                	xor	a3,a3,a4
   101d0:	fed517e3          	bne	a0,a3,101be <tick+0x2>
   101d4:	0611                	addi	a2,a2,4

000101d6 <eval>:
   101d6:	e709                	bnez	a4,101e0 <execute>
   101d8:	4014                	lw	a3,0(s0)
   101da:	c299                	beqz	a3,101e0 <execute>

000101dc <compile>:
   101dc:	2071                	jal	10268 <comma>
   101de:	bff1                	j	101ba <resolve>

000101e0 <execute>:
   101e0:	00002497          	auipc	s1,0x2
   101e4:	e084a483          	lw	s1,-504(s1) # 11fe8 <_GLOBAL_OFFSET_TABLE_+0x1c>
   101e8:	a259                	j	1036e <pick>

000101ea <token>:
   101ea:	1171                	addi	sp,sp,-4
   101ec:	c006                	sw	ra,0(sp)
   101ee:	02000793          	li	a5,32
   101f2:	00442803          	lw	a6,4(s0)
   101f6:	00080703          	lb	a4,0(a6)
   101fa:	c709                	beqz	a4,10204 <gets>
   101fc:	02f71a63          	bne	a4,a5,10230 <hash>
   10200:	0805                	addi	a6,a6,1
   10202:	bfd5                	j	101f6 <token+0xc>

00010204 <gets>:
   10204:	00002817          	auipc	a6,0x2
   10208:	dd082803          	lw	a6,-560(a6) # 11fd4 <_GLOBAL_OFFSET_TABLE_+0x8>
   1020c:	01042223          	sw	a6,4(s0)
   10210:	4729                	li	a4,10
   10212:	86be                	mv	a3,a5
   10214:	00d80023          	sb	a3,0(a6)
   10218:	0805                	addi	a6,a6,1
   1021a:	2249                	jal	1039c <_getc>
   1021c:	2a69                	jal	103b6 <_putc>
   1021e:	07f6f693          	andi	a3,a3,127
   10222:	fee699e3          	bne	a3,a4,10214 <gets+0x10>
   10226:	00f80023          	sb	a5,0(a6)
   1022a:	000800a3          	sb	zero,1(a6)
   1022e:	b7d1                	j	101f2 <token+0x8>

00010230 <hash>:
   10230:	2819                	jal	10246 <djb2>

00010232 <mask>:
   10232:	800006b7          	lui	a3,0x80000
   10236:	fff68693          	addi	a3,a3,-1 # 7fffffff <MASK_IMM>
   1023a:	8d75                	and	a0,a0,a3
   1023c:	01042223          	sw	a6,4(s0)
   10240:	4082                	lw	ra,0(sp)
   10242:	0111                	addi	sp,sp,4
   10244:	8082                	ret

00010246 <djb2>:
   10246:	00001537          	lui	a0,0x1
   1024a:	50550513          	addi	a0,a0,1285 # 1505 <DJB2>
   1024e:	02000793          	li	a5,32
   10252:	00080683          	lb	a3,0(a6)
   10256:	00f68863          	beq	a3,a5,10266 <djb2+0x20>
   1025a:	872a                	mv	a4,a0
   1025c:	0516                	slli	a0,a0,0x5
   1025e:	953a                	add	a0,a0,a4
   10260:	8d35                	xor	a0,a0,a3
   10262:	0805                	addi	a6,a6,1
   10264:	b7fd                	j	10252 <djb2+0xc>
   10266:	8082                	ret

00010268 <comma>:
   10268:	00c42803          	lw	a6,12(s0)
   1026c:	00c82023          	sw	a2,0(a6)
   10270:	0811                	addi	a6,a6,4
   10272:	01042623          	sw	a6,12(s0)
   10276:	8082                	ret

00010278 <pull2>:
   10278:	01042803          	lw	a6,16(s0)
   1027c:	00082683          	lw	a3,0(a6)
   10280:	0811                	addi	a6,a6,4
   10282:	00082703          	lw	a4,0(a6)
   10286:	8082                	ret
	...

0001028a <h_key>:
   1028a:	00000000          	.word	0x00000000
   1028e:	0b876d32          	.word	0x0b876d32

00010292 <key>:
   10292:	2229                	jal	1039c <_getc>
   10294:	a885                	j	10304 <push1>
	...

00010298 <h_emit>:
   10298:	0001028a          	.word	0x0001028a
   1029c:	7c6b87d0          	.word	0x7c6b87d0

000102a0 <emit>:
   102a0:	3fe1                	jal	10278 <pull2>
   102a2:	2a11                	jal	103b6 <_putc>
   102a4:	a0ad                	j	1030e <save1>
	...

000102a8 <h_store>:
   102a8:	00010298          	.word	0x00010298
   102ac:	0002b584          	.word	0x0002b584

000102b0 <store>:
   102b0:	37e1                	jal	10278 <pull2>
   102b2:	c298                	sw	a4,0(a3)

000102b4 <drop1>:
   102b4:	0811                	addi	a6,a6,4
   102b6:	a8a1                	j	1030e <save1>
	...

000102ba <h_fetch>:
   102ba:	000102a8          	.word	0x000102a8
   102be:	0002b5e5          	.word	0x0002b5e5

000102c2 <fetch>:
   102c2:	3f5d                	jal	10278 <pull2>
   102c4:	4294                	lw	a3,0(a3)
   102c6:	a089                	j	10308 <back1>

000102c8 <h_nand>:
   102c8:	000102ba          	.word	0x000102ba
   102cc:	7c727500          	.word	0x7c727500

000102d0 <nand>:
   102d0:	3765                	jal	10278 <pull2>
   102d2:	8ef9                	and	a3,a3,a4
   102d4:	fff6c693          	not	a3,a3
   102d8:	a80d                	j	1030a <keep1>

000102da <h_plus>:
   102da:	000102c8          	.word	0x000102c8
   102de:	0002b58e          	.word	0x0002b58e

000102e2 <plus>:
   102e2:	3f59                	jal	10278 <pull2>
   102e4:	96ba                	add	a3,a3,a4
   102e6:	a015                	j	1030a <keep1>

000102e8 <h_zeroq>:
   102e8:	000102da          	.word	0x000102da
   102ec:	00596816          	.word	0x00596816

000102f0 <zeroq>:
   102f0:	3761                	jal	10278 <pull2>

000102f2 <isfalse>:
   102f2:	cea5                	beqz	a3,1036a <next>

000102f4 <istrue>:
   102f4:	56fd                	li	a3,-1
   102f6:	a809                	j	10308 <back1>
	...

000102fa <h_state>:
   102fa:	000102e8          	.word	0x000102e8
   102fe:	005970d6          	.word	0x005970d6

00010302 <state>:
   10302:	86a2                	mv	a3,s0

00010304 <push1>:
   10304:	01042803          	lw	a6,16(s0)

00010308 <back1>:
   10308:	1871                	addi	a6,a6,-4

0001030a <keep1>:
   1030a:	00d82023          	sw	a3,0(a6)

0001030e <save1>:
   1030e:	01042823          	sw	a6,16(s0)
   10312:	a8a1                	j	1036a <next>
	...

00010316 <h_colon>:
   10316:	000102fa          	.word	0x000102fa
   1031a:	0002b59f          	.word	0x0002b59f

0001031e <colon>:
   1031e:	4454                	lw	a3,12(s0)
   10320:	cc14                	sw	a3,24(s0)
   10322:	00106693          	ori	a3,zero,1
   10326:	c014                	sw	a3,0(s0)
   10328:	4410                	lw	a2,8(s0)
   1032a:	3f3d                	jal	10268 <comma>
   1032c:	3d7d                	jal	101ea <token>
   1032e:	862a                	mv	a2,a0

00010330 <finish>:
   10330:	3f25                	jal	10268 <comma>
   10332:	a825                	j	1036a <next>

00010334 <h_semis>:
   10334:	00010316          	.word	0x00010316
   10338:	8002b59e          	.word	0x8002b59e

0001033c <semis>:
   1033c:	4c14                	lw	a3,24(s0)
   1033e:	c414                	sw	a3,8(s0)
   10340:	00042023          	sw	zero,0(s0)
   10344:	00002617          	auipc	a2,0x2
   10348:	ca862603          	lw	a2,-856(a2) # 11fec <_GLOBAL_OFFSET_TABLE_+0x20>
   1034c:	3f31                	jal	10268 <comma>
   1034e:	223d                	jal	1047c <wordu>
   10350:	a829                	j	1036a <next>
	...

00010354 <h_exit>:
   10354:	00010334          	.word	0x00010334
   10358:	7c6bbe85          	.word	0x7c6bbe85

0001035c <exit>:
   1035c:	01442803          	lw	a6,20(s0)
   10360:	00082483          	lw	s1,0(a6)
   10364:	0811                	addi	a6,a6,4
   10366:	01042a23          	sw	a6,20(s0)

0001036a <next>:
   1036a:	4090                	lw	a2,0(s1)
   1036c:	0491                	addi	s1,s1,4

0001036e <pick>:
   1036e:	00002817          	auipc	a6,0x2
   10372:	c8282803          	lw	a6,-894(a6) # 11ff0 <_GLOBAL_OFFSET_TABLE_+0x24>
   10376:	00c85b63          	bge	a6,a2,1038c <jump>

0001037a <nest>:
   1037a:	01442803          	lw	a6,20(s0)
   1037e:	1871                	addi	a6,a6,-4
   10380:	00982023          	sw	s1,0(a6)
   10384:	01042a23          	sw	a6,20(s0)

00010388 <move>:
   10388:	84b2                	mv	s1,a2
   1038a:	b7c5                	j	1036a <next>

0001038c <jump>:
   1038c:	00060067          	jr	a2

00010390 <_exit>:
   10390:	4501                	li	a0,0
   10392:	05d00893          	li	a7,93
   10396:	00000073          	ecall

0001039a <_init>:
   1039a:	8082                	ret

0001039c <_getc>:
   1039c:	4501                	li	a0,0
   1039e:	00002597          	auipc	a1,0x2
   103a2:	c565a583          	lw	a1,-938(a1) # 11ff4 <_GLOBAL_OFFSET_TABLE_+0x28>
   103a6:	4605                	li	a2,1
   103a8:	03f00893          	li	a7,63
   103ac:	00000073          	ecall
   103b0:	4194                	lw	a3,0(a1)
   103b2:	dd79                	beqz	a0,10390 <_exit>
   103b4:	8082                	ret

000103b6 <_putc>:
   103b6:	4505                	li	a0,1
   103b8:	00002597          	auipc	a1,0x2
   103bc:	c3c5a583          	lw	a1,-964(a1) # 11ff4 <_GLOBAL_OFFSET_TABLE_+0x28>
   103c0:	4605                	li	a2,1
   103c2:	04000893          	li	a7,64
   103c6:	c194                	sw	a3,0(a1)
   103c8:	00000073          	ecall
   103cc:	8082                	ret

000103ce <puthex>:
   103ce:	1171                	addi	sp,sp,-4
   103d0:	c006                	sw	ra,0(sp)
   103d2:	28a9                	jal	1042c <saves>
   103d4:	8936                	mv	s2,a3
   103d6:	03a00a93          	li	s5,58
   103da:	01895993          	srli	s3,s2,0x18
   103de:	2821                	jal	103f6 <puthex+0x28>
   103e0:	01095993          	srli	s3,s2,0x10
   103e4:	2809                	jal	103f6 <puthex+0x28>
   103e6:	00895993          	srli	s3,s2,0x8
   103ea:	2031                	jal	103f6 <puthex+0x28>
   103ec:	00095993          	srli	s3,s2,0x0
   103f0:	2019                	jal	103f6 <puthex+0x28>
   103f2:	86ca                	mv	a3,s2
   103f4:	a0a9                	j	1043e <loads>
   103f6:	1171                	addi	sp,sp,-4
   103f8:	c006                	sw	ra,0(sp)
   103fa:	0ff9f993          	zext.b	s3,s3
   103fe:	0049da13          	srli	s4,s3,0x4
   10402:	2039                	jal	10410 <puthex+0x42>
   10404:	0009da13          	srli	s4,s3,0x0
   10408:	2021                	jal	10410 <puthex+0x42>
   1040a:	4082                	lw	ra,0(sp)
   1040c:	0111                	addi	sp,sp,4
   1040e:	8082                	ret
   10410:	1171                	addi	sp,sp,-4
   10412:	c006                	sw	ra,0(sp)
   10414:	00fa7a13          	andi	s4,s4,15
   10418:	030a6a13          	ori	s4,s4,48
   1041c:	015a4363          	blt	s4,s5,10422 <puthex+0x54>
   10420:	0a1d                	addi	s4,s4,7
   10422:	86d2                	mv	a3,s4
   10424:	3f49                	jal	103b6 <_putc>
   10426:	4082                	lw	ra,0(sp)
   10428:	0111                	addi	sp,sp,4
   1042a:	8082                	ret

0001042c <saves>:
   1042c:	1111                	addi	sp,sp,-28
   1042e:	c02a                	sw	a0,0(sp)
   10430:	c22e                	sw	a1,4(sp)
   10432:	c432                	sw	a2,8(sp)
   10434:	c636                	sw	a3,12(sp)
   10436:	c83a                	sw	a4,16(sp)
   10438:	ca3e                	sw	a5,20(sp)
   1043a:	cc42                	sw	a6,24(sp)
   1043c:	8082                	ret

0001043e <loads>:
   1043e:	4502                	lw	a0,0(sp)
   10440:	4592                	lw	a1,4(sp)
   10442:	4622                	lw	a2,8(sp)
   10444:	46b2                	lw	a3,12(sp)
   10446:	4742                	lw	a4,16(sp)
   10448:	47d2                	lw	a5,20(sp)
   1044a:	4862                	lw	a6,24(sp)
   1044c:	0171                	addi	sp,sp,28
   1044e:	4082                	lw	ra,0(sp)
   10450:	0111                	addi	sp,sp,4
   10452:	8082                	ret

00010454 <words>:
   10454:	1171                	addi	sp,sp,-4
   10456:	c006                	sw	ra,0(sp)
   10458:	3fd1                	jal	1042c <saves>
   1045a:	00842803          	lw	a6,8(s0)
   1045e:	46a9                	li	a3,10
   10460:	3f99                	jal	103b6 <_putc>
   10462:	86c2                	mv	a3,a6
   10464:	37ad                	jal	103ce <puthex>
   10466:	02000693          	li	a3,32
   1046a:	37b1                	jal	103b6 <_putc>
   1046c:	00080763          	beqz	a6,1047a <words+0x26>
   10470:	87c2                	mv	a5,a6
   10472:	0007a803          	lw	a6,0(a5)
   10476:	2809                	jal	10488 <wordt>
   10478:	bfd5                	j	1046c <words+0x18>
   1047a:	b7d1                	j	1043e <loads>

0001047c <wordu>:
   1047c:	1171                	addi	sp,sp,-4
   1047e:	c006                	sw	ra,0(sp)
   10480:	3775                	jal	1042c <saves>
   10482:	441c                	lw	a5,8(s0)
   10484:	2011                	jal	10488 <wordt>
   10486:	bf65                	j	1043e <loads>

00010488 <wordt>:
   10488:	1171                	addi	sp,sp,-4
   1048a:	c006                	sw	ra,0(sp)
   1048c:	00002297          	auipc	t0,0x2
   10490:	b602a283          	lw	t0,-1184(t0) # 11fec <_GLOBAL_OFFSET_TABLE_+0x20>
   10494:	03e00693          	li	a3,62
   10498:	3f39                	jal	103b6 <_putc>
   1049a:	46a9                	li	a3,10
   1049c:	3f29                	jal	103b6 <_putc>
   1049e:	86be                	mv	a3,a5
   104a0:	373d                	jal	103ce <puthex>
   104a2:	02000693          	li	a3,32
   104a6:	3f01                	jal	103b6 <_putc>
   104a8:	4398                	lw	a4,0(a5)
   104aa:	86ba                	mv	a3,a4
   104ac:	370d                	jal	103ce <puthex>
   104ae:	02000693          	li	a3,32
   104b2:	3711                	jal	103b6 <_putc>
   104b4:	0791                	addi	a5,a5,4
   104b6:	fe5712e3          	bne	a4,t0,1049a <wordt+0x12>
   104ba:	4082                	lw	ra,0(sp)
   104bc:	0111                	addi	sp,sp,4
   104be:	8082                	ret

000104c0 <shows>:
   104c0:	1171                	addi	sp,sp,-4
   104c2:	c006                	sw	ra,0(sp)
   104c4:	37a5                	jal	1042c <saves>
   104c6:	46a9                	li	a3,10
   104c8:	35fd                	jal	103b6 <_putc>
   104ca:	05200693          	li	a3,82
   104ce:	35e5                	jal	103b6 <_putc>
   104d0:	02000693          	li	a3,32
   104d4:	35cd                	jal	103b6 <_putc>
   104d6:	03000693          	li	a3,48
   104da:	3df1                	jal	103b6 <_putc>
   104dc:	02000693          	li	a3,32
   104e0:	3dd9                	jal	103b6 <_putc>
   104e2:	8696                	mv	a3,t0
   104e4:	35ed                	jal	103ce <puthex>
   104e6:	02000693          	li	a3,32
   104ea:	35f1                	jal	103b6 <_putc>
   104ec:	03100693          	li	a3,49
   104f0:	35d9                	jal	103b6 <_putc>
   104f2:	02000693          	li	a3,32
   104f6:	35c1                	jal	103b6 <_putc>
   104f8:	869a                	mv	a3,t1
   104fa:	3dd1                	jal	103ce <puthex>
   104fc:	02000693          	li	a3,32
   10500:	3d5d                	jal	103b6 <_putc>
   10502:	03200693          	li	a3,50
   10506:	3d45                	jal	103b6 <_putc>
   10508:	02000693          	li	a3,32
   1050c:	356d                	jal	103b6 <_putc>
   1050e:	869e                	mv	a3,t2
   10510:	3d7d                	jal	103ce <puthex>
   10512:	02000693          	li	a3,32
   10516:	3545                	jal	103b6 <_putc>
   10518:	03300693          	li	a3,51
   1051c:	3d69                	jal	103b6 <_putc>
   1051e:	02000693          	li	a3,32
   10522:	3d51                	jal	103b6 <_putc>
   10524:	86f2                	mv	a3,t3
   10526:	3565                	jal	103ce <puthex>
   10528:	02000693          	li	a3,32
   1052c:	3569                	jal	103b6 <_putc>
   1052e:	03400693          	li	a3,52
   10532:	3551                	jal	103b6 <_putc>
   10534:	02000693          	li	a3,32
   10538:	3dbd                	jal	103b6 <_putc>
   1053a:	86f6                	mv	a3,t4
   1053c:	3d49                	jal	103ce <puthex>
   1053e:	02000693          	li	a3,32
   10542:	3d95                	jal	103b6 <_putc>
   10544:	03500693          	li	a3,53
   10548:	35bd                	jal	103b6 <_putc>
   1054a:	02000693          	li	a3,32
   1054e:	35a5                	jal	103b6 <_putc>
   10550:	86fa                	mv	a3,t5
   10552:	3db5                	jal	103ce <puthex>
   10554:	02000693          	li	a3,32
   10558:	3db9                	jal	103b6 <_putc>
   1055a:	03600693          	li	a3,54
   1055e:	3da1                	jal	103b6 <_putc>
   10560:	02000693          	li	a3,32
   10564:	3d89                	jal	103b6 <_putc>
   10566:	86fe                	mv	a3,t6
   10568:	359d                	jal	103ce <puthex>
   1056a:	02000693          	li	a3,32
   1056e:	35a1                	jal	103b6 <_putc>
   10570:	46a9                	li	a3,10
   10572:	3591                	jal	103b6 <_putc>
   10574:	05500693          	li	a3,85
   10578:	3d3d                	jal	103b6 <_putc>
   1057a:	02000693          	li	a3,32
   1057e:	3d25                	jal	103b6 <_putc>
   10580:	05300693          	li	a3,83
   10584:	3d0d                	jal	103b6 <_putc>
   10586:	02000693          	li	a3,32
   1058a:	3535                	jal	103b6 <_putc>
   1058c:	4014                	lw	a3,0(s0)
   1058e:	86b6                	mv	a3,a3
   10590:	3d3d                	jal	103ce <puthex>
   10592:	02000693          	li	a3,32
   10596:	3505                	jal	103b6 <_putc>
   10598:	04c00693          	li	a3,76
   1059c:	3d29                	jal	103b6 <_putc>
   1059e:	02000693          	li	a3,32
   105a2:	3d11                	jal	103b6 <_putc>
   105a4:	4414                	lw	a3,8(s0)
   105a6:	86b6                	mv	a3,a3
   105a8:	351d                	jal	103ce <puthex>
   105aa:	02000693          	li	a3,32
   105ae:	3521                	jal	103b6 <_putc>
   105b0:	04800693          	li	a3,72
   105b4:	3509                	jal	103b6 <_putc>
   105b6:	02000693          	li	a3,32
   105ba:	3bf5                	jal	103b6 <_putc>
   105bc:	4454                	lw	a3,12(s0)
   105be:	86b6                	mv	a3,a3
   105c0:	3539                	jal	103ce <puthex>
   105c2:	02000693          	li	a3,32
   105c6:	3bc5                	jal	103b6 <_putc>
   105c8:	04400693          	li	a3,68
   105cc:	33ed                	jal	103b6 <_putc>
   105ce:	02000693          	li	a3,32
   105d2:	33d5                	jal	103b6 <_putc>
   105d4:	4c14                	lw	a3,24(s0)
   105d6:	86b6                	mv	a3,a3
   105d8:	3bdd                	jal	103ce <puthex>
   105da:	02000693          	li	a3,32
   105de:	3be1                	jal	103b6 <_putc>
   105e0:	05300693          	li	a3,83
   105e4:	3bc9                	jal	103b6 <_putc>
   105e6:	05000693          	li	a3,80
   105ea:	33f1                	jal	103b6 <_putc>
   105ec:	02000693          	li	a3,32
   105f0:	33d9                	jal	103b6 <_putc>
   105f2:	4814                	lw	a3,16(s0)
   105f4:	86b6                	mv	a3,a3
   105f6:	3be1                	jal	103ce <puthex>
   105f8:	02000693          	li	a3,32
   105fc:	3b6d                	jal	103b6 <_putc>
   105fe:	05200693          	li	a3,82
   10602:	3b55                	jal	103b6 <_putc>
   10604:	05000693          	li	a3,80
   10608:	337d                	jal	103b6 <_putc>
   1060a:	02000693          	li	a3,32
   1060e:	3365                	jal	103b6 <_putc>
   10610:	4854                	lw	a3,20(s0)
   10612:	86b6                	mv	a3,a3
   10614:	3b6d                	jal	103ce <puthex>
   10616:	02000693          	li	a3,32
   1061a:	3b71                	jal	103b6 <_putc>
   1061c:	b50d                	j	1043e <loads>

0001061e <stackS>:
   1061e:	1171                	addi	sp,sp,-4
   10620:	c006                	sw	ra,0(sp)
   10622:	3529                	jal	1042c <saves>
   10624:	46a9                	li	a3,10
   10626:	3b41                	jal	103b6 <_putc>
   10628:	05300693          	li	a3,83
   1062c:	3369                	jal	103b6 <_putc>
   1062e:	01042803          	lw	a6,16(s0)
   10632:	00002797          	auipc	a5,0x2
   10636:	9a67a783          	lw	a5,-1626(a5) # 11fd8 <_GLOBAL_OFFSET_TABLE_+0xc>
   1063a:	2015                	jal	1065e <stackp>
   1063c:	b509                	j	1043e <loads>

0001063e <stackR>:
   1063e:	1171                	addi	sp,sp,-4
   10640:	c006                	sw	ra,0(sp)
   10642:	33ed                	jal	1042c <saves>
   10644:	46a9                	li	a3,10
   10646:	3b85                	jal	103b6 <_putc>
   10648:	05200693          	li	a3,82
   1064c:	33ad                	jal	103b6 <_putc>
   1064e:	01442803          	lw	a6,20(s0)
   10652:	00002797          	auipc	a5,0x2
   10656:	98a7a783          	lw	a5,-1654(a5) # 11fdc <_GLOBAL_OFFSET_TABLE_+0x10>
   1065a:	2011                	jal	1065e <stackp>
   1065c:	b3cd                	j	1043e <loads>

0001065e <stackp>:
   1065e:	1171                	addi	sp,sp,-4
   10660:	c006                	sw	ra,0(sp)
   10662:	03d00693          	li	a3,61
   10666:	3b81                	jal	103b6 <_putc>
   10668:	86c2                	mv	a3,a6
   1066a:	3395                	jal	103ce <puthex>
   1066c:	02000693          	li	a3,32
   10670:	3399                	jal	103b6 <_putc>
   10672:	05b00693          	li	a3,91
   10676:	3381                	jal	103b6 <_putc>
   10678:	02000693          	li	a3,32
   1067c:	3b2d                	jal	103b6 <_putc>
   1067e:	01078c63          	beq	a5,a6,10696 <stackp+0x38>
   10682:	00082703          	lw	a4,0(a6)
   10686:	86ba                	mv	a3,a4
   10688:	3399                	jal	103ce <puthex>
   1068a:	02000693          	li	a3,32
   1068e:	3325                	jal	103b6 <_putc>
   10690:	0811                	addi	a6,a6,4
   10692:	ff0798e3          	bne	a5,a6,10682 <stackp+0x24>
   10696:	05d00693          	li	a3,93
   1069a:	3b31                	jal	103b6 <_putc>
   1069c:	4082                	lw	ra,0(sp)
   1069e:	0111                	addi	sp,sp,4
   106a0:	8082                	ret

000106a2 <ends>:
   106a2:	deadbeef          	.word	0xdeadbeef
	...
