   10108:	c414                	sw	a3,8(s0)
   10112:	c454                	sw	a3,12(s0)
   1011c:	c014                	sw	a3,0(s0)
   10126:	c054                	sw	a3,4(s0)
   1012c:	2805                	jal	1015c <token>
   1012e:	440c                	lw	a1,8(s0)
   10130:	d1f5                	beqz	a1,10114 <abort>
   10132:	86ae                	mv	a3,a1
   10134:	428c                	lw	a1,0(a3)
   10136:	0691                	addi	a3,a3,4
   10138:	4290                	lw	a2,0(a3)
   1013e:	8f71                	and	a4,a4,a2
   10140:	8e39                	xor	a2,a2,a4
   10146:	0691                	addi	a3,a3,4
   10148:	4810                	lw	a2,16(s0)
   1014a:	c601                	beqz	a2,10152 <execute>
   1014c:	e319                	bnez	a4,10152 <execute>
   1014e:	2099                	jal	10194 <comma>
   10150:	bff1                	j	1012c <find>
   1015a:	a879                	j	101f8 <pick>
   1015c:	1171                	addi	sp,sp,-4
   1015e:	c006                	sw	ra,0(sp)
   1016c:	2089                	jal	101ae <_getc>
   10176:	873e                	mv	a4,a5
   10178:	0796                	slli	a5,a5,0x5
   1017a:	97ba                	add	a5,a5,a4
   1017c:	8fb5                	xor	a5,a5,a3
   1017e:	2805                	jal	101ae <_getc>
   10188:	0786                	slli	a5,a5,0x1
   1018a:	8385                	srli	a5,a5,0x1
   1018c:	4082                	lw	ra,0(sp)
   1018e:	0111                	addi	sp,sp,4
   10190:	8082                	ret
   10192:	8082                	ret
   10194:	445c                	lw	a5,12(s0)
   10196:	c394                	sw	a3,0(a5)
   10198:	0791                	addi	a5,a5,4
   1019a:	c45c                	sw	a5,12(s0)
   1019c:	8082                	ret
   101a6:	4501                	li	a0,0
   101ac:	8082                	ret
   101b2:	4501                	li	a0,0
   101bc:	4605                	li	a2,1
   101c6:	dd71                	beqz	a0,101a2 <_exit>
   101c8:	8082                	ret
   101ce:	4505                	li	a0,1
   101d8:	4605                	li	a2,1
   101e2:	8082                	ret
   101ec:	405c                	lw	a5,4(s0)
   101ee:	4384                	lw	s1,0(a5)
   101f0:	0791                	addi	a5,a5,4
   101f2:	c05c                	sw	a5,4(s0)
   101f4:	4094                	lw	a3,0(s1)
   101f6:	0491                	addi	s1,s1,4
   10208:	405c                	lw	a5,4(s0)
   1020a:	17f1                	addi	a5,a5,-4
   1020c:	c384                	sw	s1,0(a5)
   1020e:	c05c                	sw	a5,4(s0)
   10210:	84b6                	mv	s1,a3
   10212:	b7cd                	j	101f4 <next>
   1021c:	4454                	lw	a3,12(s0)
   1021e:	c854                	sw	a3,20(s0)
   10220:	4685                	li	a3,1
   10222:	c814                	sw	a3,16(s0)
   10224:	4414                	lw	a3,8(s0)
   10226:	37bd                	jal	10194 <comma>
   10228:	3f15                	jal	1015c <token>
   1022a:	86be                	mv	a3,a5
   1022c:	37a5                	jal	10194 <comma>
   1022e:	b7d9                	j	101f4 <next>
   10238:	4854                	lw	a3,20(s0)
   1023a:	c414                	sw	a3,8(s0)
   10248:	b7d5                	j	1022c <docomma>
   10252:	3fb1                	jal	101ae <_getc>
   10254:	a0a5                	j	102bc <push1>
   1025e:	20a5                	jal	102c6 <pull2>
   10260:	37ad                	jal	101ca <_putc>
   10262:	a085                	j	102c2 <save1>
   1026c:	28a9                	jal	102c6 <pull2>
   1026e:	c298                	sw	a4,0(a3)
   10270:	0791                	addi	a5,a5,4
   10272:	a881                	j	102c2 <save1>
   1027c:	20a9                	jal	102c6 <pull2>
   1027e:	4294                	lw	a3,0(a3)
   10280:	a83d                	j	102be <back1>
   1028a:	2835                	jal	102c6 <pull2>
   1028c:	8ef9                	and	a3,a3,a4
   10292:	a03d                	j	102c0 <keep1>
   1029c:	202d                	jal	102c6 <pull2>
   1029e:	96ba                	add	a3,a3,a4
   102a0:	a005                	j	102c0 <keep1>
   102aa:	2831                	jal	102c6 <pull2>
   102ac:	d6a1                	beqz	a3,101f4 <next>
   102ae:	56fd                	li	a3,-1
   102b0:	a039                	j	102be <back1>
   102ba:	86a2                	mv	a3,s0
   102bc:	401c                	lw	a5,0(s0)
   102be:	17f1                	addi	a5,a5,-4
   102c0:	c394                	sw	a3,0(a5)
   102c2:	c01c                	sw	a5,0(s0)
   102c4:	bf05                	j	101f4 <next>
   102c6:	401c                	lw	a5,0(s0)
   102c8:	4394                	lw	a3,0(a5)
   102ca:	0791                	addi	a5,a5,4
   102cc:	4398                	lw	a4,0(a5)
   102ce:	8082                	ret
