
sector.elf:     file format elf32-littleriscv
sector.elf

Sections:
Idx Name          Size      VMA       LMA       File off  Algn
  0 .note.gnu.build-id 00000024  000100d4  000100d4  000000d4  2**2
                  CONTENTS, ALLOC, LOAD, READONLY, DATA
  1 .text         000004f2  000100f8  000100f8  000000f8  2**2
                  CONTENTS, ALLOC, LOAD, READONLY, CODE
  2 .got          00000028  00011fd0  00011fd0  00000fd0  2**2
                  CONTENTS, ALLOC, LOAD, DATA
  3 .got.plt      00000008  00011ff8  00011ff8  00000ff8  2**2
                  CONTENTS, ALLOC, LOAD, DATA
  4 .data         00000008  00012000  00012000  00001000  2**2
                  CONTENTS, ALLOC, LOAD, DATA
  5 .bss          00040004  00012008  00012008  00001008  2**2
                  ALLOC
  6 .riscv.attributes 00000051  00000000  00000000  00001008  2**0
                  CONTENTS, READONLY
SYMBOL TABLE:
000100d4 l    d  .note.gnu.build-id	00000000 .note.gnu.build-id
000100f8 l    d  .text	00000000 .text
00011fd0 l    d  .got	00000000 .got
00011ff8 l    d  .got.plt	00000000 .got.plt
00012000 l    d  .data	00000000 .data
00012008 l    d  .bss	00000000 .bss
00000000 l    d  .riscv.attributes	00000000 .riscv.attributes
00000000 l    df *ABS*	00000000 ccte6DWd.o
00040000 l       *ABS*	00000000 RAM_LIMIT
00000000 l       *ABS*	00000000 FALSE
ffffffff l       *ABS*	00000000 TRUE
00000000 l       *ABS*	00000000 EXECUTE
00000001 l       *ABS*	00000000 COMPILE
00000001 l       *ABS*	00000000 ONE
00000002 l       *ABS*	00000000 TWO
00000004 l       *ABS*	00000000 CELL
00000020 l       *ABS*	00000000 BL
00000022 l       *ABS*	00000000 QU
80000000 l       *ABS*	00000000 FLAG_IMM
7fffffff l       *ABS*	00000000 MASK_IMM
00000024 l       *ABS*	00000000 stacks
00000090 l       *ABS*	00000000 sp_size
00000090 l       *ABS*	00000000 rp_size
00000008 l       *ABS*	00000000 params
00000020 l       *ABS*	00000000 user_size
00000000 l       *ABS*	00000000 SPTR
00000004 l       *ABS*	00000000 RPTR
00000008 l       *ABS*	00000000 LAST
0000000c l       *ABS*	00000000 HEAP
00000010 l       *ABS*	00000000 STAT
00000014 l       *ABS*	00000000 HEAD
00000018 l       *ABS*	00000000 BEAT
0000001c l       *ABS*	00000000 TICK
00012008 l       .bss	00000000 void
0001200c l       .bss	00000000 _user
0001202c l       .bss	00000000 _spb
000120bc l       .bss	00000000 sp0
000120c0 l       .bss	00000000 _rpb
00012150 l       .bss	00000000 rp0
00012154 l       .bss	00000000 h_here
0005200c l       .bss	00000000 h_ends
000100f8 l       .text	00000000 main
000100f8 l       .text	00000000 cold
00010100 l       .text	00000000 warm
000105d2 l       .text	00000000 h_last
00010114 l       .text	00000000 miss
00010114 l       .text	00000000 abort
0001011e l       .text	00000000 quit
0001012c l       .text	00000000 knot
0001012c l       .text	00000000 find
0001015c l       .text	00000000 token
00010148 l       .text	00000000 eval
00010152 l       .text	00000000 execute
00010152 l       .text	00000000 immediate
0001014e l       .text	00000000 compile
00010194 l       .text	00000000 comma
0001019e l       .text	00000000 knotptr
000101f0 l       .text	00000000 pick
00001505 l       *ABS*	00000000 DJB2
00000005 l       *ABS*	00000000 SFHT
000101ae l       .text	00000000 _getc
00010188 l       .text	00000000 mask
00010192 l       .text	00000000 pass
00000000 l       *ABS*	00000000 _ZERO
00000001 l       *ABS*	00000000 _ONE
00000000 l       *ABS*	00000000 _STDIN
00000001 l       *ABS*	00000000 _STDOUT
0000002d l       *ABS*	00000000 _SBRK
00000037 l       *ABS*	00000000 _FCNT
0000003f l       *ABS*	00000000 _GETC
00000040 l       *ABS*	00000000 _PUTC
0000005d l       *ABS*	00000000 _EXIT
000000c0 l       *ABS*	00000000 _MMAP
00012004 l       .data	00000000 _char
000101a2 l       .text	00000000 _exit
000101ac l       .text	00000000 _init
000101ca l       .text	00000000 _putc
000101de l       .text	00000000 _rets
000105d2 l       .text	00000000 last_next
0002b584 l       *ABS*	00000000 hash_store
0002b5e5 l       *ABS*	00000000 hash_fetch
0002b58e l       *ABS*	00000000 hash_plus
00596816 l       *ABS*	00000000 hash_zeroq
0002b59f l       *ABS*	00000000 hash_colon
8002b59e l       *ABS*	00000000 hash_semis
0b87f112 l       *ABS*	00000000 hash_KEY
7c7c87d0 l       *ABS*	00000000 hash_EMIT
7c8254c0 l       *ABS*	00000000 hash_NAND
005973b0 l       *ABS*	00000000 hash_USERAT
7c7cc745 l       *ABS*	00000000 hash_EXIT
00000000 l       *ABS*	00000000 init_primitives
000101e4 l       .text	00000000 unnest
000101ec l       .text	00000000 next
000105e8 l       .text	00000000 ends
00010200 l       .text	00000000 nest
000101fc l       .text	00000000 jump
00010208 l       .text	00000000 move
0001020c l       .text	00000000 it_exit
00010214 l       .text	00000000 is_exit
00010216 l       .text	00000000 it_colon
0001021e l       .text	00000000 is_colon
00010226 l       .text	00000000 create
0001022e l       .text	00000000 docomma
00010232 l       .text	00000000 it_semis
0001023a l       .text	00000000 is_semis
00010242 l       .text	00000000 finish
0001024c l       .text	00000000 it_key
00010254 l       .text	00000000 is_key
000102c2 l       .text	00000000 push1
00010258 l       .text	00000000 it_emit
00010260 l       .text	00000000 is_emit
000102cc l       .text	00000000 pull2
000102c8 l       .text	00000000 save1
00010266 l       .text	00000000 it_store
0001026e l       .text	00000000 is_store
00010272 l       .text	00000000 drop1
00010276 l       .text	00000000 it_fetch
0001027e l       .text	00000000 is_fetch
000102d6 l       .text	00000000 look0
00010282 l       .text	00000000 keep0
00010286 l       .text	00000000 it_nand
0001028e l       .text	00000000 is_nand
000102c6 l       .text	00000000 keep1
00010298 l       .text	00000000 it_plus
000102a0 l       .text	00000000 is_plus
000102a6 l       .text	00000000 it_zeroq
000102ae l       .text	00000000 is_zeroq
000102c4 l       .text	00000000 back1
000102b8 l       .text	00000000 it_userat
000102c0 l       .text	00000000 is_userat
000102b8 l       .text	00000000 init_cores
0002b588 l       *ABS*	00000000 hash_SUB
0002b598 l       *ABS*	00000000 hash_EQU
0002b599 l       *ABS*	00000000 hash_LESS
00597287 l       *ABS*	00000000 hash_CTO
005972e6 l       *ABS*	00000000 hash_CAT
00597497 l       *ABS*	00000000 hash_RAT
005968a9 l       *ABS*	00000000 hash_TOR
005974e9 l       *ABS*	00000000 hash_RTO
0b87b72e l       *ABS*	00000000 hash_AND
00597378 l       *ABS*	00000000 hash_OR
0b883040 l       *ABS*	00000000 hash_XOR
0b87d3d0 l       *ABS*	00000000 hash_NOT
0b87d489 l       *ABS*	00000000 hash_NEG
0b87bc84 l       *ABS*	00000000 hash_DUP
7c7f5c2c l       *ABS*	00000000 hash_DROP
7c84398b l       *ABS*	00000000 hash_OVER
7c8a3910 l       *ABS*	00000000 hash_SWAP
0b8807cc l       *ABS*	00000000 hash_ROT
7c4e8ca1 l       *ABS*	00000000 hash_NROT
0b87db14 l       *ABS*	00000000 hash_LIT
1e6c4191 l       *ABS*	00000000 hash_BRANCH
7d28616b l       *ABS*	00000000 hash_ZBRANCH
0002b58b l       *ABS*	00000000 hash_DOT
0c531cc8 l       *ABS*	00000000 hash_ALIGN
7c879bf3 l       *ABS*	00000000 hash_TRUE
0c3c6778 l       *ABS*	00000000 hash_FALSE
0b87d404 l       *ABS*	00000000 hash_NAN
0002b594 l       *ABS*	00000000 hash_ONE
0002b597 l       *ABS*	00000000 hash_TWO
7c81b0a3 l       *ABS*	00000000 hash_CELL
075d9a73 l       *ABS*	00000000 hash_DOCODE
0a1dff4f l       *ABS*	00000000 hash_ABORT
0b874afb l       *ABS*	00000000 hash_BYE
0059685d l       *ABS*	00000000 hash_sfl
00596858 l       *ABS*	00000000 hash_sfr
005972e6 l       *ABS*	00000000 hash_cfetch
00597287 l       *ABS*	00000000 hash_cstore
0059676f l       *ABS*	00000000 hash_plusto
0dd1f032 l       *ABS*	00000000 hash_STAT
2adaafbe l       *ABS*	00000000 hash_LAST
00597251 l       *ABS*	00000000 hash_HEAP
7c7f0af1 l       *ABS*	00000000 hash_DEEP
0b880527 l       *ABS*	00000000 hash_RPAT
0b8811e6 l       *ABS*	00000000 hash_SPAT
0b880546 l       *ABS*	00000000 hash_RPTO
0b881187 l       *ABS*	00000000 hash_SPTO
000102dc l       .text	00000000 it_align
000102e4 l       .text	00000000 is_align
000102ec l       .text	00000000 it_sfl
000102f4 l       .text	00000000 is_sfl
000102fa l       .text	00000000 it_sfr
00010302 l       .text	00000000 is_sfr
00010308 l       .text	00000000 it_nots
00010310 l       .text	00000000 is_nots
00010318 l       .text	00000000 it_negs
00010320 l       .text	00000000 is_negs
00010328 l       .text	00000000 it_dups
00010330 l       .text	00000000 is_dups
00010334 l       .text	00000000 it_drop
0001033c l       .text	00000000 is_drop
0001033e l       .text	00000000 it_over
00010346 l       .text	00000000 is_over
0001034c l       .text	00000000 it_swap
00010354 l       .text	00000000 is_swap
0001035e l       .text	00000000 it_rot
00010366 l       .text	00000000 is_rot
00010378 l       .text	00000000 it_nrot
00010380 l       .text	00000000 is_nrot
00010392 l       .text	00000000 it_cfetch
0001039a l       .text	00000000 is_cfetch
000103a2 l       .text	00000000 it_cstore
000103aa l       .text	00000000 is_cstore
000103b4 l       .text	00000000 it_sub
000103bc l       .text	00000000 is_sub
000103c4 l       .text	00000000 it_and
000103cc l       .text	00000000 is_and
000103d2 l       .text	00000000 it_or
000103da l       .text	00000000 is_or
000103e0 l       .text	00000000 it_xor
000103e8 l       .text	00000000 is_xor
000103ee l       .text	00000000 it_equ
000104ca l       .text	00000000 it_false
000103f6 l       .text	00000000 is_equ
00010400 l       .text	00000000 isfalse
000103fc l       .text	00000000 istrue
00010404 l       .text	00000000 it_less
0001040c l       .text	00000000 is_less
00010414 l       .text	00000000 it_rat
0001041c l       .text	00000000 is_rat
0001041c l       .text	00000000 rlook0
00010422 l       .text	00000000 it_rto
0001042a l       .text	00000000 is_rto
0001042a l       .text	00000000 rpull1
00010438 l       .text	00000000 it_tor
00010440 l       .text	00000000 is_tor
00010450 l       .text	00000000 it_rpat
00010458 l       .text	00000000 is_rpat
0001045c l       .text	00000000 it_rpto
00010464 l       .text	00000000 is_rpto
0001046a l       .text	00000000 it_spat
00010472 l       .text	00000000 is_spat
00010476 l       .text	00000000 it_spto
0001047e l       .text	00000000 is_spto
00010484 l       .text	00000000 it_branch
0001048c l       .text	00000000 is_branch
0001048c l       .text	00000000 branch
00010498 l       .text	00000000 it_branchz
000104a0 l       .text	00000000 is_branchz
000104a4 l       .text	00000000 rdrop1
000104ac l       .text	00000000 it_lit
000104b4 l       .text	00000000 is_lit
000104be l       .text	00000000 it_true
000104c6 l       .text	00000000 is_true
000104d2 l       .text	00000000 is_false
000104d6 l       .text	00000000 it_one
000104de l       .text	00000000 is_one
000104e2 l       .text	00000000 it_two
000104ea l       .text	00000000 is_two
000104ee l       .text	00000000 it_cell
000104f6 l       .text	00000000 is_cell
000104fa l       .text	00000000 it_nan
00010502 l       .text	00000000 is_nan
00010502 l       .text	00000000 by_zero
00010502 l       .text	00000000 by_erro
00010508 l       .text	00000000 it_stat
00010510 l       .text	00000000 is_stat
00010514 l       .text	00000000 it_last
0001051c l       .text	00000000 is_last
00010520 l       .text	00000000 it_heap
00010528 l       .text	00000000 is_heap
0001052c l       .text	00000000 it_docode
00010534 l       .text	00000000 is_docode
0001053a l       .text	00000000 it_aborts
00010542 l       .text	00000000 is_aborts
00010544 l       .text	00000000 it_byes
0001054c l       .text	00000000 is_byes
0001054e l       .text	00000000 it_plusto
00010556 l       .text	00000000 is_plusto
00010560 l       .text	00000000 it_deep
00010568 l       .text	00000000 is_deep
0001057c l       .text	00000000 it_dot
00010584 l       .text	00000000 is_dot
0001057c l       .text	00000000 init_math
7c4d1c6c l       *ABS*	00000000 hash_BYMOD
005972c2 l       *ABS*	00000000 hash_BYMUL
0002b580 l       *ABS*	00000000 hash_PER
0002b58a l       *ABS*	00000000 hash_DIV
0002b58f l       *ABS*	00000000 hash_MUL
005972c2 l       *ABS*	00000000 hash_MSTAR
0b87eb77 l       *ABS*	00000000 hash_UMSTAR
14cb69a7 l       *ABS*	00000000 hash_FMBYMOD
49be2c12 l       *ABS*	00000000 hash_SMBYMOD
000105b8 l       .text	00000000 it_bymul
000105c0 l       .text	00000000 is_bymul
000105ca l       .text	00000000 push2
000105d2 l       .text	00000000 it_bymod
000105da l       .text	00000000 is_bymod
00011fd0 l     O .got	00000000 _GLOBAL_OFFSET_TABLE_
00012808 g       *ABS*	00000000 __global_pointer$
00012008 g       .data	00000000 __SDATA_BEGIN__
0001058a g       .text	00000000 tohex
000100f8 g       .text	00000000 _start
0005200c g       .bss	00000000 __BSS_END__
00012008 g       .bss	00000000 __bss_start
00012000 g       .data	00000000 __DATA_BEGIN__
00012008 g       .data	00000000 _edata
0005200c g       .bss	00000000 _end



Disassembly of section .text:

000100f8 <_start>:
   100f8:	00002417          	auipc	s0,0x2
   100fc:	edc42403          	lw	s0,-292(s0) # 11fd4 <_GLOBAL_OFFSET_TABLE_+0x4>

00010100 <warm>:
   10100:	00002697          	auipc	a3,0x2
   10104:	ee46a683          	lw	a3,-284(a3) # 11fe4 <_GLOBAL_OFFSET_TABLE_+0x14>
   10108:	c414                	sw	a3,8(s0)
   1010a:	00002697          	auipc	a3,0x2
   1010e:	ed66a683          	lw	a3,-298(a3) # 11fe0 <_GLOBAL_OFFSET_TABLE_+0x10>
   10112:	c454                	sw	a3,12(s0)

00010114 <abort>:
   10114:	00002697          	auipc	a3,0x2
   10118:	ec46a683          	lw	a3,-316(a3) # 11fd8 <_GLOBAL_OFFSET_TABLE_+0x8>
   1011c:	c014                	sw	a3,0(s0)

0001011e <quit>:
   1011e:	00002697          	auipc	a3,0x2
   10122:	ebe6a683          	lw	a3,-322(a3) # 11fdc <_GLOBAL_OFFSET_TABLE_+0xc>
   10126:	c054                	sw	a3,4(s0)
   10128:	00042823          	sw	zero,16(s0)

0001012c <find>:
   1012c:	2805                	jal	1015c <token>
   1012e:	440c                	lw	a1,8(s0)
   10130:	d1f5                	beqz	a1,10114 <abort>
   10132:	86ae                	mv	a3,a1
   10134:	428c                	lw	a1,0(a3)
   10136:	0691                	addi	a3,a3,4
   10138:	4290                	lw	a2,0(a3)
   1013a:	80000737          	lui	a4,0x80000
   1013e:	8f71                	and	a4,a4,a2
   10140:	8e39                	xor	a2,a2,a4
   10142:	fec797e3          	bne	a5,a2,10130 <find+0x4>
   10146:	0691                	addi	a3,a3,4

00010148 <eval>:
   10148:	4810                	lw	a2,16(s0)
   1014a:	c601                	beqz	a2,10152 <execute>
   1014c:	e319                	bnez	a4,10152 <execute>

0001014e <compile>:
   1014e:	2099                	jal	10194 <comma>
   10150:	bff1                	j	1012c <find>

00010152 <execute>:
   10152:	00002497          	auipc	s1,0x2
   10156:	e964a483          	lw	s1,-362(s1) # 11fe8 <_GLOBAL_OFFSET_TABLE_+0x18>
   1015a:	a859                	j	101f0 <pick>

0001015c <token>:
   1015c:	1171                	addi	sp,sp,-4
   1015e:	c006                	sw	ra,0(sp)
   10160:	000017b7          	lui	a5,0x1
   10164:	50578793          	addi	a5,a5,1285 # 1505 <DJB2>
   10168:	02000813          	li	a6,32
   1016c:	2089                	jal	101ae <_getc>
   1016e:	ff06cfe3          	blt	a3,a6,1016c <token+0x10>
   10172:	ff068de3          	beq	a3,a6,1016c <token+0x10>
   10176:	873e                	mv	a4,a5
   10178:	0796                	slli	a5,a5,0x5
   1017a:	97ba                	add	a5,a5,a4
   1017c:	8fb5                	xor	a5,a5,a3
   1017e:	2805                	jal	101ae <_getc>
   10180:	ff06cfe3          	blt	a3,a6,1017e <token+0x22>
   10184:	ff0699e3          	bne	a3,a6,10176 <token+0x1a>

00010188 <mask>:
   10188:	0786                	slli	a5,a5,0x1
   1018a:	8385                	srli	a5,a5,0x1
   1018c:	4082                	lw	ra,0(sp)
   1018e:	0111                	addi	sp,sp,4
   10190:	8082                	ret

00010192 <pass>:
   10192:	8082                	ret

00010194 <comma>:
   10194:	445c                	lw	a5,12(s0)
   10196:	c394                	sw	a3,0(a5)
   10198:	0791                	addi	a5,a5,4
   1019a:	c45c                	sw	a5,12(s0)
   1019c:	8082                	ret

0001019e <knotptr>:
   1019e:	0001012c          	.word	0x0001012c

000101a2 <_exit>:
   101a2:	05d00893          	li	a7,93
   101a6:	4501                	li	a0,0
   101a8:	00000073          	ecall

000101ac <_init>:
   101ac:	8082                	ret

000101ae <_getc>:
   101ae:	03f00893          	li	a7,63
   101b2:	4501                	li	a0,0
   101b4:	00002597          	auipc	a1,0x2
   101b8:	e385a583          	lw	a1,-456(a1) # 11fec <_GLOBAL_OFFSET_TABLE_+0x1c>
   101bc:	4605                	li	a2,1
   101be:	00000073          	ecall
   101c2:	00058683          	lb	a3,0(a1)
   101c6:	dd71                	beqz	a0,101a2 <_exit>
   101c8:	8082                	ret

000101ca <_putc>:
   101ca:	04000893          	li	a7,64
   101ce:	4505                	li	a0,1
   101d0:	00002597          	auipc	a1,0x2
   101d4:	e1c5a583          	lw	a1,-484(a1) # 11fec <_GLOBAL_OFFSET_TABLE_+0x1c>
   101d8:	4605                	li	a2,1
   101da:	00d58023          	sb	a3,0(a1)

000101de <_rets>:
   101de:	00000073          	ecall
   101e2:	8082                	ret

000101e4 <unnest>:
   101e4:	405c                	lw	a5,4(s0)
   101e6:	4384                	lw	s1,0(a5)
   101e8:	0791                	addi	a5,a5,4
   101ea:	c05c                	sw	a5,4(s0)

000101ec <next>:
   101ec:	4094                	lw	a3,0(s1)
   101ee:	0491                	addi	s1,s1,4

000101f0 <pick>:
   101f0:	00002797          	auipc	a5,0x2
   101f4:	e007a783          	lw	a5,-512(a5) # 11ff0 <_GLOBAL_OFFSET_TABLE_+0x20>
   101f8:	00f6d463          	bge	a3,a5,10200 <nest>

000101fc <jump>:
   101fc:	000680e7          	jalr	a3

00010200 <nest>:
   10200:	405c                	lw	a5,4(s0)
   10202:	17f1                	addi	a5,a5,-4
   10204:	c384                	sw	s1,0(a5)
   10206:	c05c                	sw	a5,4(s0)

00010208 <move>:
   10208:	84b6                	mv	s1,a3
   1020a:	b7cd                	j	101ec <next>

0001020c <it_exit>:
   1020c:	00000000          	.word	0x00000000
   10210:	7c7cc745          	.word	0x7c7cc745

00010214 <is_exit>:
   10214:	bfc1                	j	101e4 <unnest>

00010216 <it_colon>:
   10216:	0001020c          	.word	0x0001020c
   1021a:	0002b59f          	.word	0x0002b59f

0001021e <is_colon>:
   1021e:	4454                	lw	a3,12(s0)
   10220:	c854                	sw	a3,20(s0)
   10222:	4685                	li	a3,1
   10224:	c814                	sw	a3,16(s0)

00010226 <create>:
   10226:	4414                	lw	a3,8(s0)
   10228:	37b5                	jal	10194 <comma>
   1022a:	3f0d                	jal	1015c <token>
   1022c:	86be                	mv	a3,a5

0001022e <docomma>:
   1022e:	379d                	jal	10194 <comma>
   10230:	bf75                	j	101ec <next>

00010232 <it_semis>:
   10232:	00010216          	.word	0x00010216
   10236:	8002b59e          	.word	0x8002b59e

0001023a <is_semis>:
   1023a:	4854                	lw	a3,20(s0)
   1023c:	c414                	sw	a3,8(s0)
   1023e:	00042823          	sw	zero,16(s0)

00010242 <finish>:
   10242:	00002697          	auipc	a3,0x2
   10246:	db26a683          	lw	a3,-590(a3) # 11ff4 <_GLOBAL_OFFSET_TABLE_+0x24>
   1024a:	b7d5                	j	1022e <docomma>

0001024c <it_key>:
   1024c:	00010232          	.word	0x00010232
   10250:	0b87f112          	.word	0x0b87f112

00010254 <is_key>:
   10254:	3fa9                	jal	101ae <_getc>
   10256:	a0b5                	j	102c2 <push1>

00010258 <it_emit>:
   10258:	0001024c          	.word	0x0001024c
   1025c:	7c7c87d0          	.word	0x7c7c87d0

00010260 <is_emit>:
   10260:	20b5                	jal	102cc <pull2>
   10262:	37a5                	jal	101ca <_putc>
   10264:	a095                	j	102c8 <save1>

00010266 <it_store>:
   10266:	00010258          	.word	0x00010258
   1026a:	0002b584          	.word	0x0002b584

0001026e <is_store>:
   1026e:	28b9                	jal	102cc <pull2>
   10270:	c298                	sw	a4,0(a3)

00010272 <drop1>:
   10272:	0791                	addi	a5,a5,4
   10274:	a891                	j	102c8 <save1>

00010276 <it_fetch>:
   10276:	00010266          	.word	0x00010266
   1027a:	0002b5e5          	.word	0x0002b5e5

0001027e <is_fetch>:
   1027e:	28a1                	jal	102d6 <look0>
   10280:	4294                	lw	a3,0(a3)

00010282 <keep0>:
   10282:	c394                	sw	a3,0(a5)
   10284:	b7a5                	j	101ec <next>

00010286 <it_nand>:
   10286:	00010276          	.word	0x00010276
   1028a:	7c8254c0          	.word	0x7c8254c0

0001028e <is_nand>:
   1028e:	283d                	jal	102cc <pull2>
   10290:	8ef9                	and	a3,a3,a4
   10292:	fff6c693          	not	a3,a3
   10296:	a805                	j	102c6 <keep1>

00010298 <it_plus>:
   10298:	00010286          	.word	0x00010286
   1029c:	0002b58e          	.word	0x0002b58e

000102a0 <is_plus>:
   102a0:	2035                	jal	102cc <pull2>
   102a2:	96ba                	add	a3,a3,a4
   102a4:	a00d                	j	102c6 <keep1>

000102a6 <it_zeroq>:
   102a6:	00010298          	.word	0x00010298
   102aa:	00596816          	.word	0x00596816

000102ae <is_zeroq>:
   102ae:	2839                	jal	102cc <pull2>
   102b0:	f2068ee3          	beqz	a3,101ec <next>
   102b4:	56fd                	li	a3,-1
   102b6:	a039                	j	102c4 <back1>

000102b8 <init_cores>:
   102b8:	000102a6          	.word	0x000102a6
   102bc:	005973b0          	.word	0x005973b0

000102c0 <is_userat>:
   102c0:	86a2                	mv	a3,s0

000102c2 <push1>:
   102c2:	401c                	lw	a5,0(s0)

000102c4 <back1>:
   102c4:	17f1                	addi	a5,a5,-4

000102c6 <keep1>:
   102c6:	c394                	sw	a3,0(a5)

000102c8 <save1>:
   102c8:	c01c                	sw	a5,0(s0)
   102ca:	b70d                	j	101ec <next>

000102cc <pull2>:
   102cc:	401c                	lw	a5,0(s0)
   102ce:	4394                	lw	a3,0(a5)
   102d0:	0791                	addi	a5,a5,4
   102d2:	4398                	lw	a4,0(a5)
   102d4:	8082                	ret

000102d6 <look0>:
   102d6:	401c                	lw	a5,0(s0)
   102d8:	4394                	lw	a3,0(a5)
   102da:	8082                	ret

000102dc <it_align>:
   102dc:	000102b8          	.word	0x000102b8
   102e0:	0c531cc8          	.word	0x0c531cc8

000102e4 <is_align>:
   102e4:	3fcd                	jal	102d6 <look0>
   102e6:	068d                	addi	a3,a3,3
   102e8:	9af1                	andi	a3,a3,-4
   102ea:	bf61                	j	10282 <keep0>

000102ec <it_sfl>:
   102ec:	000102dc          	.word	0x000102dc
   102f0:	0059685d          	.word	0x0059685d

000102f4 <is_sfl>:
   102f4:	37cd                	jal	102d6 <look0>
   102f6:	0686                	slli	a3,a3,0x1
   102f8:	b769                	j	10282 <keep0>

000102fa <it_sfr>:
   102fa:	000102ec          	.word	0x000102ec
   102fe:	00596858          	.word	0x00596858

00010302 <is_sfr>:
   10302:	3fd1                	jal	102d6 <look0>
   10304:	8285                	srli	a3,a3,0x1
   10306:	bfb5                	j	10282 <keep0>

00010308 <it_nots>:
   10308:	000102fa          	.word	0x000102fa
   1030c:	0b87d3d0          	.word	0x0b87d3d0

00010310 <is_nots>:
   10310:	37d9                	jal	102d6 <look0>
   10312:	fff6c693          	not	a3,a3
   10316:	b7b5                	j	10282 <keep0>

00010318 <it_negs>:
   10318:	00010308          	.word	0x00010308
   1031c:	0b87d489          	.word	0x0b87d489

00010320 <is_negs>:
   10320:	3f5d                	jal	102d6 <look0>
   10322:	40d006b3          	neg	a3,a3
   10326:	bfb1                	j	10282 <keep0>

00010328 <it_dups>:
   10328:	00010318          	.word	0x00010318
   1032c:	0b87bc84          	.word	0x0b87bc84

00010330 <is_dups>:
   10330:	375d                	jal	102d6 <look0>
   10332:	bf49                	j	102c4 <back1>

00010334 <it_drop>:
   10334:	00010328          	.word	0x00010328
   10338:	7c7f5c2c          	.word	0x7c7f5c2c

0001033c <is_drop>:
   1033c:	bf1d                	j	10272 <drop1>

0001033e <it_over>:
   1033e:	00010334          	.word	0x00010334
   10342:	7c84398b          	.word	0x7c84398b

00010346 <is_over>:
   10346:	3f41                	jal	102d6 <look0>
   10348:	43d4                	lw	a3,4(a5)
   1034a:	bfa5                	j	102c2 <push1>

0001034c <it_swap>:
   1034c:	0001033e          	.word	0x0001033e
   10350:	7c8a3910          	.word	0x7c8a3910

00010354 <is_swap>:
   10354:	3749                	jal	102d6 <look0>
   10356:	43d8                	lw	a4,4(a5)
   10358:	c398                	sw	a4,0(a5)
   1035a:	c3d4                	sw	a3,4(a5)
   1035c:	bd41                	j	101ec <next>

0001035e <it_rot>:
   1035e:	0001034c          	.word	0x0001034c
   10362:	0b8807cc          	.word	0x0b8807cc

00010366 <is_rot>:
   10366:	3f85                	jal	102d6 <look0>
   10368:	43d8                	lw	a4,4(a5)
   1036a:	0087a803          	lw	a6,8(a5)
   1036e:	0107a023          	sw	a6,0(a5)
   10372:	c3d4                	sw	a3,4(a5)
   10374:	c798                	sw	a4,8(a5)
   10376:	bd9d                	j	101ec <next>

00010378 <it_nrot>:
   10378:	0001035e          	.word	0x0001035e
   1037c:	7c4e8ca1          	.word	0x7c4e8ca1

00010380 <is_nrot>:
   10380:	3f99                	jal	102d6 <look0>
   10382:	43d8                	lw	a4,4(a5)
   10384:	0087a803          	lw	a6,8(a5)
   10388:	c398                	sw	a4,0(a5)
   1038a:	0107a223          	sw	a6,4(a5)
   1038e:	c794                	sw	a3,8(a5)
   10390:	bdb1                	j	101ec <next>

00010392 <it_cfetch>:
   10392:	00010378          	.word	0x00010378
   10396:	005972e6          	.word	0x005972e6

0001039a <is_cfetch>:
   1039a:	3f35                	jal	102d6 <look0>
   1039c:	00068683          	lb	a3,0(a3)
   103a0:	b5cd                	j	10282 <keep0>

000103a2 <it_cstore>:
   103a2:	00010392          	.word	0x00010392
   103a6:	00597287          	.word	0x00597287

000103aa <is_cstore>:
   103aa:	370d                	jal	102cc <pull2>
   103ac:	00e68023          	sb	a4,0(a3)
   103b0:	0791                	addi	a5,a5,4
   103b2:	b5c1                	j	10272 <drop1>

000103b4 <it_sub>:
   103b4:	000103a2          	.word	0x000103a2
   103b8:	0002b588          	.word	0x0002b588

000103bc <is_sub>:
   103bc:	3f01                	jal	102cc <pull2>
   103be:	40d706b3          	sub	a3,a4,a3
   103c2:	b711                	j	102c6 <keep1>

000103c4 <it_and>:
   103c4:	000103b4          	.word	0x000103b4
   103c8:	0b87b72e          	.word	0x0b87b72e

000103cc <is_and>:
   103cc:	3701                	jal	102cc <pull2>
   103ce:	8ef9                	and	a3,a3,a4
   103d0:	bddd                	j	102c6 <keep1>

000103d2 <it_or>:
   103d2:	000103c4          	.word	0x000103c4
   103d6:	00597378          	.word	0x00597378

000103da <is_or>:
   103da:	3dcd                	jal	102cc <pull2>
   103dc:	8ed9                	or	a3,a3,a4
   103de:	b5e5                	j	102c6 <keep1>

000103e0 <it_xor>:
   103e0:	000103d2          	.word	0x000103d2
   103e4:	0b883040          	.word	0x0b883040

000103e8 <is_xor>:
   103e8:	35d5                	jal	102cc <pull2>
   103ea:	8eb9                	xor	a3,a3,a4
   103ec:	bde9                	j	102c6 <keep1>

000103ee <it_equ>:
   103ee:	000104ca          	.word	0x000104ca
   103f2:	0002b598          	.word	0x0002b598

000103f6 <is_equ>:
   103f6:	3dd9                	jal	102cc <pull2>
   103f8:	00e69463          	bne	a3,a4,10400 <isfalse>

000103fc <istrue>:
   103fc:	56fd                	li	a3,-1
   103fe:	b551                	j	10282 <keep0>

00010400 <isfalse>:
   10400:	4681                	li	a3,0
   10402:	b541                	j	10282 <keep0>

00010404 <it_less>:
   10404:	000103ee          	.word	0x000103ee
   10408:	0002b599          	.word	0x0002b599

0001040c <is_less>:
   1040c:	35c1                	jal	102cc <pull2>
   1040e:	fed747e3          	blt	a4,a3,103fc <istrue>
   10412:	b7fd                	j	10400 <isfalse>

00010414 <it_rat>:
   10414:	00010404          	.word	0x00010404
   10418:	00597497          	.word	0x00597497

0001041c <is_rat>:
   1041c:	405c                	lw	a5,4(s0)
   1041e:	4394                	lw	a3,0(a5)
   10420:	b54d                	j	102c2 <push1>

00010422 <it_rto>:
   10422:	00010414          	.word	0x00010414
   10426:	005974e9          	.word	0x005974e9

0001042a <is_rto>:
   1042a:	405c                	lw	a5,4(s0)
   1042c:	43d4                	lw	a3,4(a5)
   1042e:	4398                	lw	a4,0(a5)
   10430:	0791                	addi	a5,a5,4
   10432:	c398                	sw	a4,0(a5)
   10434:	c05c                	sw	a5,4(s0)
   10436:	b571                	j	102c2 <push1>

00010438 <it_tor>:
   10438:	00010422          	.word	0x00010422
   1043c:	005968a9          	.word	0x005968a9

00010440 <is_tor>:
   10440:	3571                	jal	102cc <pull2>
   10442:	405c                	lw	a5,4(s0)
   10444:	4398                	lw	a4,0(a5)
   10446:	c394                	sw	a3,0(a5)
   10448:	17f1                	addi	a5,a5,-4
   1044a:	c398                	sw	a4,0(a5)
   1044c:	c05c                	sw	a5,4(s0)
   1044e:	bb79                	j	101ec <next>

00010450 <it_rpat>:
   10450:	00010438          	.word	0x00010438
   10454:	0b880527          	.word	0x0b880527

00010458 <is_rpat>:
   10458:	4054                	lw	a3,4(s0)
   1045a:	b5a5                	j	102c2 <push1>

0001045c <it_rpto>:
   1045c:	00010450          	.word	0x00010450
   10460:	0b880546          	.word	0x0b880546

00010464 <is_rpto>:
   10464:	35a5                	jal	102cc <pull2>
   10466:	c054                	sw	a3,4(s0)
   10468:	b351                	j	101ec <next>

0001046a <it_spat>:
   1046a:	0001045c          	.word	0x0001045c
   1046e:	0b8811e6          	.word	0x0b8811e6

00010472 <is_spat>:
   10472:	4014                	lw	a3,0(s0)
   10474:	b5b9                	j	102c2 <push1>

00010476 <it_spto>:
   10476:	0001046a          	.word	0x0001046a
   1047a:	0b881187          	.word	0x0b881187

0001047e <is_spto>:
   1047e:	35b9                	jal	102cc <pull2>
   10480:	c014                	sw	a3,0(s0)
   10482:	b3ad                	j	101ec <next>

00010484 <it_branch>:
   10484:	00010476          	.word	0x00010476
   10488:	1e6c4191          	.word	0x1e6c4191

0001048c <branch>:
   1048c:	405c                	lw	a5,4(s0)
   1048e:	4394                	lw	a3,0(a5)
   10490:	4298                	lw	a4,0(a3)
   10492:	96ba                	add	a3,a3,a4
   10494:	c394                	sw	a3,0(a5)
   10496:	bb99                	j	101ec <next>

00010498 <it_branchz>:
   10498:	00010484          	.word	0x00010484
   1049c:	7d28616b          	.word	0x7d28616b

000104a0 <is_branchz>:
   104a0:	3535                	jal	102cc <pull2>
   104a2:	d6ed                	beqz	a3,1048c <branch>

000104a4 <rdrop1>:
   104a4:	405c                	lw	a5,4(s0)
   104a6:	0791                	addi	a5,a5,4
   104a8:	c05c                	sw	a5,4(s0)
   104aa:	b389                	j	101ec <next>

000104ac <it_lit>:
   104ac:	00010498          	.word	0x00010498
   104b0:	0b87db14          	.word	0x0b87db14

000104b4 <is_lit>:
   104b4:	405c                	lw	a5,4(s0)
   104b6:	4394                	lw	a3,0(a5)
   104b8:	0791                	addi	a5,a5,4
   104ba:	c05c                	sw	a5,4(s0)
   104bc:	b519                	j	102c2 <push1>

000104be <it_true>:
   104be:	000104ac          	.word	0x000104ac
   104c2:	7c879bf3          	.word	0x7c879bf3

000104c6 <is_true>:
   104c6:	56fd                	li	a3,-1
   104c8:	bbed                	j	102c2 <push1>

000104ca <it_false>:
   104ca:	000104be          	.word	0x000104be
   104ce:	0c3c6778          	.word	0x0c3c6778

000104d2 <is_false>:
   104d2:	4681                	li	a3,0
   104d4:	b3fd                	j	102c2 <push1>

000104d6 <it_one>:
   104d6:	000104ca          	.word	0x000104ca
   104da:	0002b594          	.word	0x0002b594

000104de <is_one>:
   104de:	4685                	li	a3,1
   104e0:	b3cd                	j	102c2 <push1>

000104e2 <it_two>:
   104e2:	000104d6          	.word	0x000104d6
   104e6:	0002b597          	.word	0x0002b597

000104ea <is_two>:
   104ea:	4689                	li	a3,2
   104ec:	bbd9                	j	102c2 <push1>

000104ee <it_cell>:
   104ee:	000104e2          	.word	0x000104e2
   104f2:	7c81b0a3          	.word	0x7c81b0a3

000104f6 <is_cell>:
   104f6:	4691                	li	a3,4
   104f8:	b3e9                	j	102c2 <push1>

000104fa <it_nan>:
   104fa:	000104ee          	.word	0x000104ee
   104fe:	0b87d404          	.word	0x0b87d404

00010502 <by_erro>:
   10502:	800006b7          	lui	a3,0x80000
   10506:	bb75                	j	102c2 <push1>

00010508 <it_stat>:
   10508:	000104fa          	.word	0x000104fa
   1050c:	0dd1f032          	.word	0x0dd1f032

00010510 <is_stat>:
   10510:	4814                	lw	a3,16(s0)
   10512:	bb45                	j	102c2 <push1>

00010514 <it_last>:
   10514:	00010508          	.word	0x00010508
   10518:	2adaafbe          	.word	0x2adaafbe

0001051c <is_last>:
   1051c:	4414                	lw	a3,8(s0)
   1051e:	b355                	j	102c2 <push1>

00010520 <it_heap>:
   10520:	00010514          	.word	0x00010514
   10524:	00597251          	.word	0x00597251

00010528 <is_heap>:
   10528:	4454                	lw	a3,12(s0)
   1052a:	bb61                	j	102c2 <push1>

0001052c <it_docode>:
   1052c:	00010520          	.word	0x00010520
   10530:	075d9a73          	.word	0x075d9a73

00010534 <is_docode>:
   10534:	000480e7          	jalr	s1
   10538:	b955                	j	101ec <next>

0001053a <it_aborts>:
   1053a:	0001052c          	.word	0x0001052c
   1053e:	0a1dff4f          	.word	0x0a1dff4f

00010542 <is_aborts>:
   10542:	bec9                	j	10114 <abort>

00010544 <it_byes>:
   10544:	0001053a          	.word	0x0001053a
   10548:	0b874afb          	.word	0x0b874afb

0001054c <is_byes>:
   1054c:	b999                	j	101a2 <_exit>

0001054e <it_plusto>:
   1054e:	00010544          	.word	0x00010544
   10552:	0059676f          	.word	0x0059676f

00010556 <is_plusto>:
   10556:	3b9d                	jal	102cc <pull2>
   10558:	429c                	lw	a5,0(a3)
   1055a:	973e                	add	a4,a4,a5
   1055c:	c298                	sw	a4,0(a3)
   1055e:	bb11                	j	10272 <drop1>

00010560 <it_deep>:
   10560:	0001054e          	.word	0x0001054e
   10564:	7c7f0af1          	.word	0x7c7f0af1

00010568 <is_deep>:
   10568:	401c                	lw	a5,0(s0)
   1056a:	00002717          	auipc	a4,0x2
   1056e:	a6e72703          	lw	a4,-1426(a4) # 11fd8 <_GLOBAL_OFFSET_TABLE_+0x8>
   10572:	873a                	mv	a4,a4
   10574:	00e786b3          	add	a3,a5,a4
   10578:	8289                	srli	a3,a3,0x2
   1057a:	b3a1                	j	102c2 <push1>

0001057c <init_math>:
   1057c:	00010560          	.word	0x00010560
   10580:	0002b58b          	.word	0x0002b58b

00010584 <is_dot>:
   10584:	33a1                	jal	102cc <pull2>
   10586:	2011                	jal	1058a <tohex>
   10588:	b195                	j	101ec <next>

0001058a <tohex>:
   1058a:	1171                	addi	sp,sp,-4
   1058c:	c006                	sw	ra,0(sp)
   1058e:	8736                	mv	a4,a3
   10590:	03a00813          	li	a6,58
   10594:	02000293          	li	t0,32
   10598:	00028d63          	beqz	t0,105b2 <tohex+0x28>
   1059c:	12f1                	addi	t0,t0,-4
   1059e:	005756b3          	srl	a3,a4,t0
   105a2:	8abd                	andi	a3,a3,15
   105a4:	0306e693          	ori	a3,a3,48
   105a8:	0106c363          	blt	a3,a6,105ae <tohex+0x24>
   105ac:	069d                	addi	a3,a3,7 # 80000007 <FLAG_IMM+0x7>
   105ae:	3931                	jal	101ca <_putc>
   105b0:	b7e5                	j	10598 <tohex+0xe>
   105b2:	4082                	lw	ra,0(sp)
   105b4:	0111                	addi	sp,sp,4
   105b6:	8082                	ret

000105b8 <it_bymul>:
   105b8:	0001057c          	.word	0x0001057c
   105bc:	005972c2          	.word	0x005972c2

000105c0 <is_bymul>:
   105c0:	3331                	jal	102cc <pull2>
   105c2:	02e69833          	mulh	a6,a3,a4
   105c6:	02e68733          	mul	a4,a3,a4

000105ca <push2>:
   105ca:	c398                	sw	a4,0(a5)
   105cc:	000806b3          	add	a3,a6,zero
   105d0:	b9d5                	j	102c4 <back1>

000105d2 <h_last>:
   105d2:	000105b8          	.word	0x000105b8
   105d6:	7c4d1c6c          	.word	0x7c4d1c6c

000105da <is_bymod>:
   105da:	39cd                	jal	102cc <pull2>
   105dc:	d31d                	beqz	a4,10502 <by_erro>
   105de:	02e6c833          	div	a6,a3,a4
   105e2:	02e6e733          	rem	a4,a3,a4
   105e6:	b7d5                	j	105ca <push2>

000105e8 <ends>:
	...
