
sector-riscv.elf:     file format elf32-littleriscv
sector-riscv.elf

Sections:
Idx Name          Size      VMA       LMA       File off  Algn
  0 .note.gnu.build-id 00000024  000100d4  000100d4  000000d4  2**2
                  CONTENTS, ALLOC, LOAD, READONLY, DATA
  1 .text         0000088a  000100f8  000100f8  000000f8  2**2
                  CONTENTS, ALLOC, LOAD, READONLY, CODE
  2 .got          0000002c  00011fcc  00011fcc  00000fcc  2**2
                  CONTENTS, ALLOC, LOAD, DATA
  3 .got.plt      00000008  00011ff8  00011ff8  00000ff8  2**2
                  CONTENTS, ALLOC, LOAD, DATA
  4 .bss          00040008  00012000  00012000  00001000  2**2
                  ALLOC
  5 .riscv.attributes 0000001f  00000000  00000000  00001000  2**0
                  CONTENTS, READONLY
SYMBOL TABLE:
000100d4 l    d  .note.gnu.build-id	00000000 .note.gnu.build-id
000100f8 l    d  .text	00000000 .text
00011fcc l    d  .got	00000000 .got
00011ff8 l    d  .got.plt	00000000 .got.plt
00012000 l    d  .bss	00000000 .bss
00000000 l    d  .riscv.attributes	00000000 .riscv.attributes
00000000 l    df *ABS*	00000000 ccBOhFtF.o
00040000 l       *ABS*	00000000 RAM_LIMIT
00000000 l       *ABS*	00000000 FALSE
ffffffff l       *ABS*	00000000 TRUE
00000000 l       *ABS*	00000000 EXECUTE
00000001 l       *ABS*	00000000 COMPILE
00000001 l       *ABS*	00000000 ONE
00000002 l       *ABS*	00000000 TWO
00000004 l       *ABS*	00000000 CELL
0000000a l       *ABS*	00000000 NL
0000000d l       *ABS*	00000000 CR
00000020 l       *ABS*	00000000 BL
00000090 l       *ABS*	00000000 spz
00000090 l       *ABS*	00000000 rpz
00000050 l       *ABS*	00000000 tibz
00000054 l       *ABS*	00000000 padz
00000044 l       *ABS*	00000000 picz
80000000 l       *ABS*	00000000 FLAG_IMM
7fffffff l       *ABS*	00000000 MASK_IMM
00000000 l       *ABS*	00000000 SPTR
00000004 l       *ABS*	00000000 RPTR
00000008 l       *ABS*	00000000 LAST
0000000c l       *ABS*	00000000 HERE
00000010 l       *ABS*	00000000 TOIN
00000014 l       *ABS*	00000000 STAT
00000018 l       *ABS*	00000000 HEAD
0000001c l       *ABS*	00000000 TAIL
0002b584 l       *ABS*	00000000 hash_store
0002b5e5 l       *ABS*	00000000 hash_fetch
0002b58e l       *ABS*	00000000 hash_plus
00596816 l       *ABS*	00000000 hash_zeroq
0002b59f l       *ABS*	00000000 hash_colon
8002b59e l       *ABS*	00000000 hash_semis
0b876d32 l       *ABS*	00000000 hash_key
7c6b87d0 l       *ABS*	00000000 hash_emit
7c6bbe85 l       *ABS*	00000000 hash_exit
7c727500 l       *ABS*	00000000 hash_nand
00596f90 l       *ABS*	00000000 hash_userat
0b87f112 l       *ABS*	00000000 hash_KEY
7c7c87d0 l       *ABS*	00000000 hash_EMIT
7c7cc745 l       *ABS*	00000000 hash_EXIT
7c8254c0 l       *ABS*	00000000 hash_NAND
005973b0 l       *ABS*	00000000 hash_USERAT
00012000 l       .bss	00000000 _beat
00012004 l       .bss	00000000 _user
00012024 l       .bss	00000000 _locals
00012044 l       .bss	00000000 _spb
000120d4 l       .bss	00000000 sp0
000120d8 l       .bss	00000000 _rpb
00012168 l       .bss	00000000 rp0
0001216c l       .bss	00000000 tib0
0001216c l       .bss	00000000 _tib
000121bc l       .bss	00000000 h_here
00052004 l       .bss	00000000 h_ends
000103f0 l       .text	00000000 _putc
0001015e l       .text	00000000 main
0001015e l       .text	00000000 cold
00010166 l       .text	00000000 warm
000104ba l       .text	00000000 h_last
0001017a l       .text	00000000 reset
00010184 l       .text	00000000 error
000101a8 l       .text	00000000 abort
000101b2 l       .text	00000000 quit
000101c0 l       .text	00000000 okey
000101e8 l       .text	00000000 tick
00010238 l       .text	00000000 token
000101ea l       .text	00000000 find
00010218 l       .text	00000000 miss
00010204 l       .text	00000000 eval
0001020e l       .text	00000000 execute
0001020e l       .text	00000000 immediate
0001020a l       .text	00000000 compile
000102c6 l       .text	00000000 docomma
000103c6 l       .text	00000000 tickpt
000103aa l       .text	00000000 pick
0001022e l       .text	00000000 wipe
00010250 l       .text	00000000 gets
00010294 l       .text	00000000 hash
000103d6 l       .text	00000000 _getc
00001505 l       *ABS*	00000000 DJB2
00000005 l       *ABS*	00000000 SFHT
00010296 l       .text	00000000 djb2
000102b2 l       .text	00000000 mask
000102d0 l       .text	00000000 pull2
000102da l       .text	00000000 h_key
000102e2 l       .text	00000000 key
0001034c l       .text	00000000 push1
000102e6 l       .text	00000000 h_emit
000102ee l       .text	00000000 emit
00010352 l       .text	00000000 save1
000102f4 l       .text	00000000 h_store
000102fc l       .text	00000000 store
00010300 l       .text	00000000 drop1
00010304 l       .text	00000000 h_fetch
0001030c l       .text	00000000 fetch
0001034e l       .text	00000000 back1
00010312 l       .text	00000000 h_nand
0001031a l       .text	00000000 nand
00010350 l       .text	00000000 keep1
00010324 l       .text	00000000 h_plus
0001032c l       .text	00000000 plus
00010332 l       .text	00000000 h_zeroq
0001033a l       .text	00000000 zeroq
0001033c l       .text	00000000 isfalse
0001039c l       .text	00000000 next
0001033e l       .text	00000000 istrue
00010342 l       .text	00000000 h_userat
0001034a l       .text	00000000 userat
00010356 l       .text	00000000 h_colon
0001035e l       .text	00000000 colon
00010366 l       .text	00000000 create
0001036e l       .text	00000000 comma
00010372 l       .text	00000000 h_semis
0001037a l       .text	00000000 semis
00010382 l       .text	00000000 finish
00010394 l       .text	00000000 exit
0001038c l       .text	00000000 h_exit
00010394 l       .text	00000000 unnest
00010982 l       .text	00000000 ends
000103ba l       .text	00000000 nest
000103b6 l       .text	00000000 jump
000103c2 l       .text	00000000 move
00000000 l       *ABS*	00000000 _ZERO
00000001 l       *ABS*	00000000 _ONE
00000000 l       *ABS*	00000000 _STDIN
00000001 l       *ABS*	00000000 _STDOUT
0000002d l       *ABS*	00000000 _SBRK
00000037 l       *ABS*	00000000 _FCNT
0000003f l       *ABS*	00000000 _GETC
00000040 l       *ABS*	00000000 _PUTC
0000005d l       *ABS*	00000000 _EXIT
000000c0 l       *ABS*	00000000 _MMAP
00052004 l       .bss	00000000 _char
000103ca l       .text	00000000 _exit
000103d4 l       .text	00000000 _init
00010404 l       .text	00000000 _rets
0001038c l       .text	00000000 into_extras
0059685d l       *ABS*	00000000 hash_sfl
00596858 l       *ABS*	00000000 hash_sfr
0002b58b l       *ABS*	00000000 hash_dot
005965d3 l       *ABS*	00000000 hash_splist
005965d2 l       *ABS*	00000000 hash_rplist
0b87d404 l       *ABS*	00000000 hash_NAN
0b874afb l       *ABS*	00000000 hash_BYE
0a1dff4f l       *ABS*	00000000 hash_ABORT
075d9a73 l       *ABS*	00000000 hash_DOCODE
0c8269c4 l       *ABS*	00000000 hash_BEATS
416e6b97 l       *ABS*	00000000 hash_RSHIFT
2c5784c9 l       *ABS*	00000000 hash_LSHIFT
7c6b2fe9 l       *ABS*	00000000 hash_DUMP
0b6953f8 l       *ABS*	00000000 hash_WORDS
0b881316 l       *ABS*	00000000 hash_SEE
7c70b163 l       *ABS*	00000000 hash_CELL
0001040a l       .text	00000000 h_sfl
00010412 l       .text	00000000 sfl
00010418 l       .text	00000000 h_sfr
00010420 l       .text	00000000 sfr
00010426 l       .text	00000000 h_nan
0001042e l       .text	00000000 nan
00010434 l       .text	00000000 h_beats
0001043c l       .text	00000000 beats
00010442 l       .text	00000000 h_docode
0001044a l       .text	00000000 docode
00010450 l       .text	00000000 h_byes
00010458 l       .text	00000000 byes
0001045a l       .text	00000000 h_aborts
00010462 l       .text	00000000 aborts
00010464 l       .text	00000000 h_splist
0001046c l       .text	00000000 splist
00010578 l       .text	00000000 stackS
00010470 l       .text	00000000 h_rplist
00010478 l       .text	00000000 rplist
0001059e l       .text	00000000 stackR
0001047c l       .text	00000000 h_dump
00010484 l       .text	00000000 dump
00010632 l       .text	00000000 dumps
0001048a l       .text	00000000 h_words
00010492 l       .text	00000000 words
000104f6 l       .text	00000000 wordf
00010496 l       .text	00000000 h_sees
0001049e l       .text	00000000 sees
00010526 l       .text	00000000 wordu
000104a2 l       .text	00000000 h_dot
000104aa l       .text	00000000 dot
00010918 l       .text	00000000 puthexy
000104ba l       .text	00000000 h_cell
000104c2 l       .text	00000000 cell
000104ba l       .text	00000000 from_extras
000104c6 l       .text	00000000 saves
000104da l       .text	00000000 loads
000104ee l       .text	00000000 returns
00010536 l       .text	00000000 wordt
000105c4 l       .text	00000000 stackp
0001068a l       .text	00000000 shows
000108d8 l       .text	00000000 number
000108f8 l       .text	00000000 digit
00011fcc l     O .got	00000000 _GLOBAL_OFFSET_TABLE_
00012800 g       *ABS*	00000000 __global_pointer$
00012000 g       .got.plt	00000000 __SDATA_BEGIN__
000100f8 g       .text	00000000 puthex
0001015e g       .text	00000000 _start
00052008 g       .bss	00000000 __BSS_END__
00012000 g       .bss	00000000 __bss_start
00012000 g       .got.plt	00000000 __DATA_BEGIN__
00012000 g       .got.plt	00000000 _edata
00052008 g       .bss	00000000 _end



Disassembly of section .text:

000100f8 <puthex>:
   100f8:	1171                	addi	sp,sp,-4
   100fa:	c006                	sw	ra,0(sp)
   100fc:	8936                	mv	s2,a3
   100fe:	03a00a93          	li	s5,58
   10102:	02000693          	li	a3,32
   10106:	24ed                	jal	103f0 <_putc>
   10108:	01895993          	srli	s3,s2,0x18
   1010c:	2831                	jal	10128 <puthex+0x30>
   1010e:	01095993          	srli	s3,s2,0x10
   10112:	2819                	jal	10128 <puthex+0x30>
   10114:	00895993          	srli	s3,s2,0x8
   10118:	2801                	jal	10128 <puthex+0x30>
   1011a:	00095993          	srli	s3,s2,0x0
   1011e:	2029                	jal	10128 <puthex+0x30>
   10120:	86ca                	mv	a3,s2
   10122:	4082                	lw	ra,0(sp)
   10124:	0111                	addi	sp,sp,4
   10126:	8082                	ret
   10128:	1171                	addi	sp,sp,-4
   1012a:	c006                	sw	ra,0(sp)
   1012c:	0ff9f993          	zext.b	s3,s3
   10130:	0049da13          	srli	s4,s3,0x4
   10134:	2039                	jal	10142 <puthex+0x4a>
   10136:	0009da13          	srli	s4,s3,0x0
   1013a:	2021                	jal	10142 <puthex+0x4a>
   1013c:	4082                	lw	ra,0(sp)
   1013e:	0111                	addi	sp,sp,4
   10140:	8082                	ret
   10142:	1171                	addi	sp,sp,-4
   10144:	c006                	sw	ra,0(sp)
   10146:	00fa7a13          	andi	s4,s4,15
   1014a:	030a6a13          	ori	s4,s4,48
   1014e:	015a4363          	blt	s4,s5,10154 <puthex+0x5c>
   10152:	0a1d                	addi	s4,s4,7
   10154:	86d2                	mv	a3,s4
   10156:	2c69                	jal	103f0 <_putc>
   10158:	4082                	lw	ra,0(sp)
   1015a:	0111                	addi	sp,sp,4
   1015c:	8082                	ret

0001015e <_start>:
   1015e:	00002417          	auipc	s0,0x2
   10162:	e7242403          	lw	s0,-398(s0) # 11fd0 <_GLOBAL_OFFSET_TABLE_+0x4>

00010166 <warm>:
   10166:	00002697          	auipc	a3,0x2
   1016a:	e7a6a683          	lw	a3,-390(a3) # 11fe0 <_GLOBAL_OFFSET_TABLE_+0x14>
   1016e:	c454                	sw	a3,12(s0)
   10170:	00002697          	auipc	a3,0x2
   10174:	e746a683          	lw	a3,-396(a3) # 11fe4 <_GLOBAL_OFFSET_TABLE_+0x18>
   10178:	c414                	sw	a3,8(s0)

0001017a <reset>:
   1017a:	00002697          	auipc	a3,0x2
   1017e:	e626a683          	lw	a3,-414(a3) # 11fdc <_GLOBAL_OFFSET_TABLE_+0x10>
   10182:	c814                	sw	a3,16(s0)

00010184 <error>:
   10184:	82b6                	mv	t0,a3
   10186:	46a9                	li	a3,10
   10188:	24a5                	jal	103f0 <_putc>
   1018a:	8696                	mv	a3,t0
   1018c:	82b6                	mv	t0,a3
   1018e:	03f00693          	li	a3,63
   10192:	2cb9                	jal	103f0 <_putc>
   10194:	8696                	mv	a3,t0
   10196:	82b6                	mv	t0,a3
   10198:	03f00693          	li	a3,63
   1019c:	2c91                	jal	103f0 <_putc>
   1019e:	8696                	mv	a3,t0
   101a0:	82b6                	mv	t0,a3
   101a2:	46a9                	li	a3,10
   101a4:	24b1                	jal	103f0 <_putc>
   101a6:	8696                	mv	a3,t0

000101a8 <abort>:
   101a8:	00002697          	auipc	a3,0x2
   101ac:	e2c6a683          	lw	a3,-468(a3) # 11fd4 <_GLOBAL_OFFSET_TABLE_+0x8>
   101b0:	c014                	sw	a3,0(s0)

000101b2 <quit>:
   101b2:	00002697          	auipc	a3,0x2
   101b6:	e266a683          	lw	a3,-474(a3) # 11fd8 <_GLOBAL_OFFSET_TABLE_+0xc>
   101ba:	c054                	sw	a3,4(s0)
   101bc:	00042a23          	sw	zero,20(s0)

000101c0 <okey>:
   101c0:	4854                	lw	a3,20(s0)
   101c2:	e29d                	bnez	a3,101e8 <tick>
   101c4:	82b6                	mv	t0,a3
   101c6:	46a9                	li	a3,10
   101c8:	2425                	jal	103f0 <_putc>
   101ca:	8696                	mv	a3,t0
   101cc:	82b6                	mv	t0,a3
   101ce:	04f00693          	li	a3,79
   101d2:	2c39                	jal	103f0 <_putc>
   101d4:	8696                	mv	a3,t0
   101d6:	82b6                	mv	t0,a3
   101d8:	04b00693          	li	a3,75
   101dc:	2c11                	jal	103f0 <_putc>
   101de:	8696                	mv	a3,t0
   101e0:	82b6                	mv	t0,a3
   101e2:	46a9                	li	a3,10
   101e4:	2431                	jal	103f0 <_putc>
   101e6:	8696                	mv	a3,t0

000101e8 <tick>:
   101e8:	2881                	jal	10238 <token>

000101ea <find>:
   101ea:	440c                	lw	a1,8(s0)
   101ec:	c595                	beqz	a1,10218 <miss>
   101ee:	86ae                	mv	a3,a1
   101f0:	428c                	lw	a1,0(a3)
   101f2:	0691                	addi	a3,a3,4
   101f4:	4290                	lw	a2,0(a3)
   101f6:	80000737          	lui	a4,0x80000
   101fa:	8f71                	and	a4,a4,a2
   101fc:	8e39                	xor	a2,a2,a4
   101fe:	fec517e3          	bne	a0,a2,101ec <find+0x2>
   10202:	0691                	addi	a3,a3,4

00010204 <eval>:
   10204:	4850                	lw	a2,20(s0)
   10206:	c601                	beqz	a2,1020e <execute>
   10208:	e319                	bnez	a4,1020e <execute>

0001020a <compile>:
   1020a:	2875                	jal	102c6 <docomma>
   1020c:	bff1                	j	101e8 <tick>

0001020e <execute>:
   1020e:	00002497          	auipc	s1,0x2
   10212:	dda4a483          	lw	s1,-550(s1) # 11fe8 <_GLOBAL_OFFSET_TABLE_+0x1c>
   10216:	aa51                	j	103aa <pick>

00010218 <miss>:
   10218:	82b6                	mv	t0,a3
   1021a:	46a9                	li	a3,10
   1021c:	2ad1                	jal	103f0 <_putc>
   1021e:	8696                	mv	a3,t0
   10220:	00078683          	lb	a3,0(a5)
   10224:	22f1                	jal	103f0 <_putc>
   10226:	01068463          	beq	a3,a6,1022e <wipe>
   1022a:	0785                	addi	a5,a5,1
   1022c:	bfd5                	j	10220 <miss+0x8>

0001022e <wipe>:
   1022e:	4854                	lw	a3,20(s0)
   10230:	c299                	beqz	a3,10236 <wipe+0x8>
   10232:	4c14                	lw	a3,24(s0)
   10234:	c454                	sw	a3,12(s0)
   10236:	b7b9                	j	10184 <error>

00010238 <token>:
   10238:	1171                	addi	sp,sp,-4
   1023a:	c006                	sw	ra,0(sp)
   1023c:	02000813          	li	a6,32
   10240:	481c                	lw	a5,16(s0)
   10242:	00078703          	lb	a4,0(a5)
   10246:	c709                	beqz	a4,10250 <gets>
   10248:	05071663          	bne	a4,a6,10294 <hash>
   1024c:	0785                	addi	a5,a5,1
   1024e:	bfd5                	j	10242 <token+0xa>

00010250 <gets>:
   10250:	00002797          	auipc	a5,0x2
   10254:	d8c7a783          	lw	a5,-628(a5) # 11fdc <_GLOBAL_OFFSET_TABLE_+0x10>
   10258:	c81c                	sw	a5,16(s0)
   1025a:	4729                	li	a4,10
   1025c:	86c2                	mv	a3,a6
   1025e:	00d78023          	sb	a3,0(a5)
   10262:	0785                	addi	a5,a5,1
   10264:	2a8d                	jal	103d6 <_getc>
   10266:	07f6f693          	andi	a3,a3,127
   1026a:	02000293          	li	t0,32
   1026e:	fe56d8e3          	bge	a3,t0,1025e <gets+0xe>
   10272:	42e1                	li	t0,24
   10274:	fc568ee3          	beq	a3,t0,10250 <gets>
   10278:	42a9                	li	t0,10
   1027a:	00568863          	beq	a3,t0,1028a <gets+0x3a>
   1027e:	42b5                	li	t0,13
   10280:	00568563          	beq	a3,t0,1028a <gets+0x3a>
   10284:	b7c5                	j	10264 <gets+0x14>
   10286:	fce69ce3          	bne	a3,a4,1025e <gets+0xe>
   1028a:	01078023          	sb	a6,0(a5)
   1028e:	000780a3          	sb	zero,1(a5)
   10292:	b77d                	j	10240 <token+0x8>

00010294 <hash>:
   10294:	863e                	mv	a2,a5

00010296 <djb2>:
   10296:	00001537          	lui	a0,0x1
   1029a:	50550513          	addi	a0,a0,1285 # 1505 <DJB2>
   1029e:	00078683          	lb	a3,0(a5)
   102a2:	01068863          	beq	a3,a6,102b2 <mask>
   102a6:	872a                	mv	a4,a0
   102a8:	0516                	slli	a0,a0,0x5
   102aa:	953a                	add	a0,a0,a4
   102ac:	8d35                	xor	a0,a0,a3
   102ae:	0785                	addi	a5,a5,1
   102b0:	b7fd                	j	1029e <djb2+0x8>

000102b2 <mask>:
   102b2:	800006b7          	lui	a3,0x80000
   102b6:	fff68693          	addi	a3,a3,-1 # 7fffffff <MASK_IMM>
   102ba:	8d75                	and	a0,a0,a3
   102bc:	c81c                	sw	a5,16(s0)
   102be:	87b2                	mv	a5,a2
   102c0:	4082                	lw	ra,0(sp)
   102c2:	0111                	addi	sp,sp,4
   102c4:	8082                	ret

000102c6 <docomma>:
   102c6:	445c                	lw	a5,12(s0)
   102c8:	c394                	sw	a3,0(a5)
   102ca:	0791                	addi	a5,a5,4
   102cc:	c45c                	sw	a5,12(s0)
   102ce:	8082                	ret

000102d0 <pull2>:
   102d0:	401c                	lw	a5,0(s0)
   102d2:	4394                	lw	a3,0(a5)
   102d4:	0791                	addi	a5,a5,4
   102d6:	4398                	lw	a4,0(a5)
   102d8:	8082                	ret

000102da <h_key>:
   102da:	00000000          	.word	0x00000000
   102de:	0b87f112          	.word	0x0b87f112

000102e2 <key>:
   102e2:	28d5                	jal	103d6 <_getc>
   102e4:	a0a5                	j	1034c <push1>

000102e6 <h_emit>:
   102e6:	000102da          	.word	0x000102da
   102ea:	7c7c87d0          	.word	0x7c7c87d0

000102ee <emit>:
   102ee:	37cd                	jal	102d0 <pull2>
   102f0:	2201                	jal	103f0 <_putc>
   102f2:	a085                	j	10352 <save1>

000102f4 <h_store>:
   102f4:	000102e6          	.word	0x000102e6
   102f8:	0002b584          	.word	0x0002b584

000102fc <store>:
   102fc:	3fd1                	jal	102d0 <pull2>
   102fe:	c298                	sw	a4,0(a3)

00010300 <drop1>:
   10300:	0791                	addi	a5,a5,4
   10302:	a881                	j	10352 <save1>

00010304 <h_fetch>:
   10304:	000102f4          	.word	0x000102f4
   10308:	0002b5e5          	.word	0x0002b5e5

0001030c <fetch>:
   1030c:	37d1                	jal	102d0 <pull2>
   1030e:	4294                	lw	a3,0(a3)
   10310:	a83d                	j	1034e <back1>

00010312 <h_nand>:
   10312:	00010304          	.word	0x00010304
   10316:	7c8254c0          	.word	0x7c8254c0

0001031a <nand>:
   1031a:	3f5d                	jal	102d0 <pull2>
   1031c:	8ef9                	and	a3,a3,a4
   1031e:	fff6c693          	not	a3,a3
   10322:	a03d                	j	10350 <keep1>

00010324 <h_plus>:
   10324:	00010312          	.word	0x00010312
   10328:	0002b58e          	.word	0x0002b58e

0001032c <plus>:
   1032c:	3755                	jal	102d0 <pull2>
   1032e:	96ba                	add	a3,a3,a4
   10330:	a005                	j	10350 <keep1>

00010332 <h_zeroq>:
   10332:	00010324          	.word	0x00010324
   10336:	00596816          	.word	0x00596816

0001033a <zeroq>:
   1033a:	3f59                	jal	102d0 <pull2>

0001033c <isfalse>:
   1033c:	c2a5                	beqz	a3,1039c <next>

0001033e <istrue>:
   1033e:	56fd                	li	a3,-1
   10340:	a039                	j	1034e <back1>

00010342 <h_userat>:
   10342:	00010332          	.word	0x00010332
   10346:	005973b0          	.word	0x005973b0

0001034a <userat>:
   1034a:	86a2                	mv	a3,s0

0001034c <push1>:
   1034c:	401c                	lw	a5,0(s0)

0001034e <back1>:
   1034e:	17f1                	addi	a5,a5,-4

00010350 <keep1>:
   10350:	c394                	sw	a3,0(a5)

00010352 <save1>:
   10352:	c01c                	sw	a5,0(s0)
   10354:	a0a1                	j	1039c <next>

00010356 <h_colon>:
   10356:	00010342          	.word	0x00010342
   1035a:	0002b59f          	.word	0x0002b59f

0001035e <colon>:
   1035e:	4454                	lw	a3,12(s0)
   10360:	cc14                	sw	a3,24(s0)
   10362:	4685                	li	a3,1
   10364:	c854                	sw	a3,20(s0)

00010366 <create>:
   10366:	4414                	lw	a3,8(s0)
   10368:	3fb9                	jal	102c6 <docomma>
   1036a:	35f9                	jal	10238 <token>
   1036c:	86aa                	mv	a3,a0

0001036e <comma>:
   1036e:	3fa1                	jal	102c6 <docomma>
   10370:	a035                	j	1039c <next>

00010372 <h_semis>:
   10372:	00010356          	.word	0x00010356
   10376:	8002b59e          	.word	0x8002b59e

0001037a <semis>:
   1037a:	4c14                	lw	a3,24(s0)
   1037c:	c414                	sw	a3,8(s0)
   1037e:	00042a23          	sw	zero,20(s0)

00010382 <finish>:
   10382:	00002697          	auipc	a3,0x2
   10386:	c6a6a683          	lw	a3,-918(a3) # 11fec <_GLOBAL_OFFSET_TABLE_+0x20>
   1038a:	b7d5                	j	1036e <comma>

0001038c <h_exit>:
   1038c:	00010372          	.word	0x00010372
   10390:	7c7cc745          	.word	0x7c7cc745

00010394 <exit>:
   10394:	405c                	lw	a5,4(s0)
   10396:	4384                	lw	s1,0(a5)
   10398:	0791                	addi	a5,a5,4
   1039a:	c05c                	sw	a5,4(s0)

0001039c <next>:
   1039c:	ffc42783          	lw	a5,-4(s0)
   103a0:	0785                	addi	a5,a5,1
   103a2:	fef42e23          	sw	a5,-4(s0)
   103a6:	4094                	lw	a3,0(s1)
   103a8:	0491                	addi	s1,s1,4

000103aa <pick>:
   103aa:	00002797          	auipc	a5,0x2
   103ae:	c467a783          	lw	a5,-954(a5) # 11ff0 <_GLOBAL_OFFSET_TABLE_+0x24>
   103b2:	00f6d463          	bge	a3,a5,103ba <nest>

000103b6 <jump>:
   103b6:	000680e7          	jalr	a3

000103ba <nest>:
   103ba:	405c                	lw	a5,4(s0)
   103bc:	17f1                	addi	a5,a5,-4
   103be:	c384                	sw	s1,0(a5)
   103c0:	c05c                	sw	a5,4(s0)

000103c2 <move>:
   103c2:	84b6                	mv	s1,a3
   103c4:	bfe1                	j	1039c <next>

000103c6 <tickpt>:
   103c6:	000101c0          	.word	0x000101c0

000103ca <_exit>:
   103ca:	4501                	li	a0,0
   103cc:	05d00893          	li	a7,93
   103d0:	00000073          	ecall

000103d4 <_init>:
   103d4:	8082                	ret

000103d6 <_getc>:
   103d6:	4501                	li	a0,0
   103d8:	00002597          	auipc	a1,0x2
   103dc:	c1c5a583          	lw	a1,-996(a1) # 11ff4 <_GLOBAL_OFFSET_TABLE_+0x28>
   103e0:	4605                	li	a2,1
   103e2:	03f00893          	li	a7,63
   103e6:	00000073          	ecall
   103ea:	00058683          	lb	a3,0(a1)
   103ee:	dd71                	beqz	a0,103ca <_exit>

000103f0 <_putc>:
   103f0:	4505                	li	a0,1
   103f2:	00002597          	auipc	a1,0x2
   103f6:	c025a583          	lw	a1,-1022(a1) # 11ff4 <_GLOBAL_OFFSET_TABLE_+0x28>
   103fa:	4605                	li	a2,1
   103fc:	04000893          	li	a7,64
   10400:	00d58023          	sb	a3,0(a1)

00010404 <_rets>:
   10404:	00000073          	ecall
   10408:	8082                	ret

0001040a <h_sfl>:
   1040a:	0001038c          	.word	0x0001038c
   1040e:	0059685d          	.word	0x0059685d

00010412 <sfl>:
   10412:	3d7d                	jal	102d0 <pull2>
   10414:	0686                	slli	a3,a3,0x1
   10416:	bf2d                	j	10350 <keep1>

00010418 <h_sfr>:
   10418:	0001040a          	.word	0x0001040a
   1041c:	00596858          	.word	0x00596858

00010420 <sfr>:
   10420:	3d45                	jal	102d0 <pull2>
   10422:	8285                	srli	a3,a3,0x1
   10424:	b735                	j	10350 <keep1>

00010426 <h_nan>:
   10426:	00010418          	.word	0x00010418
   1042a:	0b87d404          	.word	0x0b87d404

0001042e <nan>:
   1042e:	800006b7          	lui	a3,0x80000
   10432:	bf29                	j	1034c <push1>

00010434 <h_beats>:
   10434:	00010426          	.word	0x00010426
   10438:	0c8269c4          	.word	0x0c8269c4

0001043c <beats>:
   1043c:	ffc42683          	lw	a3,-4(s0)
   10440:	b731                	j	1034c <push1>

00010442 <h_docode>:
   10442:	00010434          	.word	0x00010434
   10446:	075d9a73          	.word	0x075d9a73

0001044a <docode>:
   1044a:	000480e7          	jalr	s1
   1044e:	b7b9                	j	1039c <next>

00010450 <h_byes>:
   10450:	00010442          	.word	0x00010442
   10454:	0b874afb          	.word	0x0b874afb

00010458 <byes>:
   10458:	bf8d                	j	103ca <_exit>

0001045a <h_aborts>:
   1045a:	00010450          	.word	0x00010450
   1045e:	0a1dff4f          	.word	0x0a1dff4f

00010462 <aborts>:
   10462:	b399                	j	101a8 <abort>

00010464 <h_splist>:
   10464:	0001045a          	.word	0x0001045a
   10468:	005965d3          	.word	0x005965d3

0001046c <splist>:
   1046c:	2231                	jal	10578 <stackS>
   1046e:	b73d                	j	1039c <next>

00010470 <h_rplist>:
   10470:	00010464          	.word	0x00010464
   10474:	005965d2          	.word	0x005965d2

00010478 <rplist>:
   10478:	221d                	jal	1059e <stackR>
   1047a:	b70d                	j	1039c <next>

0001047c <h_dump>:
   1047c:	00010470          	.word	0x00010470
   10480:	7c6b2fe9          	.word	0x7c6b2fe9

00010484 <dump>:
   10484:	35b1                	jal	102d0 <pull2>
   10486:	2275                	jal	10632 <dumps>
   10488:	bda5                	j	10300 <drop1>

0001048a <h_words>:
   1048a:	0001047c          	.word	0x0001047c
   1048e:	0b6953f8          	.word	0x0b6953f8

00010492 <words>:
   10492:	2095                	jal	104f6 <wordf>
   10494:	b721                	j	1039c <next>

00010496 <h_sees>:
   10496:	0001048a          	.word	0x0001048a
   1049a:	0b881316          	.word	0x0b881316

0001049e <sees>:
   1049e:	2061                	jal	10526 <wordu>
   104a0:	bdf5                	j	1039c <next>

000104a2 <h_dot>:
   104a2:	00010496          	.word	0x00010496
   104a6:	0002b58b          	.word	0x0002b58b

000104aa <dot>:
   104aa:	351d                	jal	102d0 <pull2>
   104ac:	21b5                	jal	10918 <puthexy>
   104ae:	82b6                	mv	t0,a3
   104b0:	02000693          	li	a3,32
   104b4:	3f35                	jal	103f0 <_putc>
   104b6:	8696                	mv	a3,t0
   104b8:	b5d5                	j	1039c <next>

000104ba <from_extras>:
   104ba:	000104a2          	.word	0x000104a2
   104be:	7c70b163          	.word	0x7c70b163

000104c2 <cell>:
   104c2:	4691                	li	a3,4
   104c4:	b561                	j	1034c <push1>

000104c6 <saves>:
   104c6:	1101                	addi	sp,sp,-32
   104c8:	c02a                	sw	a0,0(sp)
   104ca:	c22e                	sw	a1,4(sp)
   104cc:	c432                	sw	a2,8(sp)
   104ce:	c636                	sw	a3,12(sp)
   104d0:	c83a                	sw	a4,16(sp)
   104d2:	ca3e                	sw	a5,20(sp)
   104d4:	cc42                	sw	a6,24(sp)
   104d6:	ce46                	sw	a7,28(sp)
   104d8:	8082                	ret

000104da <loads>:
   104da:	4502                	lw	a0,0(sp)
   104dc:	4592                	lw	a1,4(sp)
   104de:	4622                	lw	a2,8(sp)
   104e0:	46b2                	lw	a3,12(sp)
   104e2:	4742                	lw	a4,16(sp)
   104e4:	47d2                	lw	a5,20(sp)
   104e6:	4862                	lw	a6,24(sp)
   104e8:	48f2                	lw	a7,28(sp)
   104ea:	6105                	addi	sp,sp,32
   104ec:	8082                	ret

000104ee <returns>:
   104ee:	37f5                	jal	104da <loads>
   104f0:	4082                	lw	ra,0(sp)
   104f2:	0111                	addi	sp,sp,4
   104f4:	8082                	ret

000104f6 <wordf>:
   104f6:	1171                	addi	sp,sp,-4
   104f8:	c006                	sw	ra,0(sp)
   104fa:	37f1                	jal	104c6 <saves>
   104fc:	441c                	lw	a5,8(s0)
   104fe:	00c42803          	lw	a6,12(s0)
   10502:	00002b97          	auipc	s7,0x2
   10506:	adebab83          	lw	s7,-1314(s7) # 11fe0 <_GLOBAL_OFFSET_TABLE_+0x14>
   1050a:	82b6                	mv	t0,a3
   1050c:	46a9                	li	a3,10
   1050e:	35cd                	jal	103f0 <_putc>
   10510:	8696                	mv	a3,t0
   10512:	fc07cee3          	bltz	a5,104ee <returns>
   10516:	fd77cce3          	blt	a5,s7,104ee <returns>
   1051a:	8c3e                	mv	s8,a5
   1051c:	2829                	jal	10536 <wordt>
   1051e:	8862                	mv	a6,s8
   10520:	00082783          	lw	a5,0(a6)
   10524:	b7fd                	j	10512 <wordf+0x1c>

00010526 <wordu>:
   10526:	1171                	addi	sp,sp,-4
   10528:	c006                	sw	ra,0(sp)
   1052a:	3f71                	jal	104c6 <saves>
   1052c:	441c                	lw	a5,8(s0)
   1052e:	00c42803          	lw	a6,12(s0)
   10532:	2011                	jal	10536 <wordt>
   10534:	bf6d                	j	104ee <returns>

00010536 <wordt>:
   10536:	1171                	addi	sp,sp,-4
   10538:	c006                	sw	ra,0(sp)
   1053a:	82b6                	mv	t0,a3
   1053c:	46a9                	li	a3,10
   1053e:	3d4d                	jal	103f0 <_putc>
   10540:	8696                	mv	a3,t0
   10542:	1171                	addi	sp,sp,-4
   10544:	c006                	sw	ra,0(sp)
   10546:	3741                	jal	104c6 <saves>
   10548:	86be                	mv	a3,a5
   1054a:	367d                	jal	100f8 <puthex>
   1054c:	3779                	jal	104da <loads>
   1054e:	4082                	lw	ra,0(sp)
   10550:	0111                	addi	sp,sp,4
   10552:	4398                	lw	a4,0(a5)
   10554:	1171                	addi	sp,sp,-4
   10556:	c006                	sw	ra,0(sp)
   10558:	37bd                	jal	104c6 <saves>
   1055a:	86ba                	mv	a3,a4
   1055c:	3e71                	jal	100f8 <puthex>
   1055e:	3fb5                	jal	104da <loads>
   10560:	4082                	lw	ra,0(sp)
   10562:	0111                	addi	sp,sp,4
   10564:	0791                	addi	a5,a5,4
   10566:	fd079ae3          	bne	a5,a6,1053a <wordt+0x4>
   1056a:	82b6                	mv	t0,a3
   1056c:	46a9                	li	a3,10
   1056e:	3549                	jal	103f0 <_putc>
   10570:	8696                	mv	a3,t0
   10572:	4082                	lw	ra,0(sp)
   10574:	0111                	addi	sp,sp,4
   10576:	8082                	ret

00010578 <stackS>:
   10578:	1171                	addi	sp,sp,-4
   1057a:	c006                	sw	ra,0(sp)
   1057c:	37a9                	jal	104c6 <saves>
   1057e:	82b6                	mv	t0,a3
   10580:	46a9                	li	a3,10
   10582:	35bd                	jal	103f0 <_putc>
   10584:	8696                	mv	a3,t0
   10586:	82b6                	mv	t0,a3
   10588:	05300693          	li	a3,83
   1058c:	3595                	jal	103f0 <_putc>
   1058e:	8696                	mv	a3,t0
   10590:	401c                	lw	a5,0(s0)
   10592:	00002817          	auipc	a6,0x2
   10596:	a4282803          	lw	a6,-1470(a6) # 11fd4 <_GLOBAL_OFFSET_TABLE_+0x8>
   1059a:	202d                	jal	105c4 <stackp>
   1059c:	bf89                	j	104ee <returns>

0001059e <stackR>:
   1059e:	1171                	addi	sp,sp,-4
   105a0:	c006                	sw	ra,0(sp)
   105a2:	3715                	jal	104c6 <saves>
   105a4:	82b6                	mv	t0,a3
   105a6:	46a9                	li	a3,10
   105a8:	35a1                	jal	103f0 <_putc>
   105aa:	8696                	mv	a3,t0
   105ac:	82b6                	mv	t0,a3
   105ae:	05200693          	li	a3,82
   105b2:	3d3d                	jal	103f0 <_putc>
   105b4:	8696                	mv	a3,t0
   105b6:	405c                	lw	a5,4(s0)
   105b8:	00002817          	auipc	a6,0x2
   105bc:	a2082803          	lw	a6,-1504(a6) # 11fd8 <_GLOBAL_OFFSET_TABLE_+0xc>
   105c0:	2011                	jal	105c4 <stackp>
   105c2:	b735                	j	104ee <returns>

000105c4 <stackp>:
   105c4:	1171                	addi	sp,sp,-4
   105c6:	c006                	sw	ra,0(sp)
   105c8:	82b6                	mv	t0,a3
   105ca:	03d00693          	li	a3,61
   105ce:	350d                	jal	103f0 <_putc>
   105d0:	8696                	mv	a3,t0
   105d2:	1171                	addi	sp,sp,-4
   105d4:	c006                	sw	ra,0(sp)
   105d6:	3dc5                	jal	104c6 <saves>
   105d8:	86be                	mv	a3,a5
   105da:	3e39                	jal	100f8 <puthex>
   105dc:	3dfd                	jal	104da <loads>
   105de:	4082                	lw	ra,0(sp)
   105e0:	0111                	addi	sp,sp,4
   105e2:	1171                	addi	sp,sp,-4
   105e4:	c006                	sw	ra,0(sp)
   105e6:	35c5                	jal	104c6 <saves>
   105e8:	86c2                	mv	a3,a6
   105ea:	3639                	jal	100f8 <puthex>
   105ec:	35fd                	jal	104da <loads>
   105ee:	4082                	lw	ra,0(sp)
   105f0:	0111                	addi	sp,sp,4
   105f2:	82b6                	mv	t0,a3
   105f4:	05b00693          	li	a3,91
   105f8:	3be5                	jal	103f0 <_putc>
   105fa:	8696                	mv	a3,t0
   105fc:	01078e63          	beq	a5,a6,10618 <stackp+0x54>
   10600:	4398                	lw	a4,0(a5)
   10602:	1171                	addi	sp,sp,-4
   10604:	c006                	sw	ra,0(sp)
   10606:	35c1                	jal	104c6 <saves>
   10608:	86ba                	mv	a3,a4
   1060a:	34fd                	jal	100f8 <puthex>
   1060c:	35f9                	jal	104da <loads>
   1060e:	4082                	lw	ra,0(sp)
   10610:	0111                	addi	sp,sp,4
   10612:	0791                	addi	a5,a5,4
   10614:	ff07c6e3          	blt	a5,a6,10600 <stackp+0x3c>
   10618:	82b6                	mv	t0,a3
   1061a:	02000693          	li	a3,32
   1061e:	3bc9                	jal	103f0 <_putc>
   10620:	8696                	mv	a3,t0
   10622:	82b6                	mv	t0,a3
   10624:	05d00693          	li	a3,93
   10628:	33e1                	jal	103f0 <_putc>
   1062a:	8696                	mv	a3,t0
   1062c:	4082                	lw	ra,0(sp)
   1062e:	0111                	addi	sp,sp,4
   10630:	8082                	ret

00010632 <dumps>:
   10632:	1171                	addi	sp,sp,-4
   10634:	c006                	sw	ra,0(sp)
   10636:	3d41                	jal	104c6 <saves>
   10638:	87b6                	mv	a5,a3
   1063a:	883a                	mv	a6,a4
   1063c:	4ea1                	li	t4,8
   1063e:	82b6                	mv	t0,a3
   10640:	46a9                	li	a3,10
   10642:	337d                	jal	103f0 <_putc>
   10644:	8696                	mv	a3,t0
   10646:	1171                	addi	sp,sp,-4
   10648:	c006                	sw	ra,0(sp)
   1064a:	3db5                	jal	104c6 <saves>
   1064c:	86be                	mv	a3,a5
   1064e:	346d                	jal	100f8 <puthex>
   10650:	3569                	jal	104da <loads>
   10652:	4082                	lw	ra,0(sp)
   10654:	0111                	addi	sp,sp,4
   10656:	82b6                	mv	t0,a3
   10658:	03a00693          	li	a3,58
   1065c:	3b51                	jal	103f0 <_putc>
   1065e:	8696                	mv	a3,t0
   10660:	82b6                	mv	t0,a3
   10662:	02000693          	li	a3,32
   10666:	3369                	jal	103f0 <_putc>
   10668:	8696                	mv	a3,t0
   1066a:	4398                	lw	a4,0(a5)
   1066c:	1171                	addi	sp,sp,-4
   1066e:	c006                	sw	ra,0(sp)
   10670:	3d99                	jal	104c6 <saves>
   10672:	86ba                	mv	a3,a4
   10674:	3451                	jal	100f8 <puthex>
   10676:	3595                	jal	104da <loads>
   10678:	4082                	lw	ra,0(sp)
   1067a:	0111                	addi	sp,sp,4
   1067c:	0791                	addi	a5,a5,4
   1067e:	1efd                	addi	t4,t4,-1
   10680:	fa0e8ee3          	beqz	t4,1063c <dumps+0xa>
   10684:	ff07c3e3          	blt	a5,a6,1066a <dumps+0x38>
   10688:	b59d                	j	104ee <returns>

0001068a <shows>:
   1068a:	1171                	addi	sp,sp,-4
   1068c:	c006                	sw	ra,0(sp)
   1068e:	3d25                	jal	104c6 <saves>
   10690:	82b6                	mv	t0,a3
   10692:	46a9                	li	a3,10
   10694:	3bb1                	jal	103f0 <_putc>
   10696:	8696                	mv	a3,t0
   10698:	82b6                	mv	t0,a3
   1069a:	05200693          	li	a3,82
   1069e:	3b89                	jal	103f0 <_putc>
   106a0:	8696                	mv	a3,t0
   106a2:	82b6                	mv	t0,a3
   106a4:	02000693          	li	a3,32
   106a8:	33a1                	jal	103f0 <_putc>
   106aa:	8696                	mv	a3,t0
   106ac:	82b6                	mv	t0,a3
   106ae:	03000693          	li	a3,48
   106b2:	3b3d                	jal	103f0 <_putc>
   106b4:	8696                	mv	a3,t0
   106b6:	82b6                	mv	t0,a3
   106b8:	02000693          	li	a3,32
   106bc:	3b15                	jal	103f0 <_putc>
   106be:	8696                	mv	a3,t0
   106c0:	1171                	addi	sp,sp,-4
   106c2:	c006                	sw	ra,0(sp)
   106c4:	3509                	jal	104c6 <saves>
   106c6:	8696                	mv	a3,t0
   106c8:	a31ff0ef          	jal	100f8 <puthex>
   106cc:	3539                	jal	104da <loads>
   106ce:	4082                	lw	ra,0(sp)
   106d0:	0111                	addi	sp,sp,4
   106d2:	82b6                	mv	t0,a3
   106d4:	03100693          	li	a3,49
   106d8:	3b21                	jal	103f0 <_putc>
   106da:	8696                	mv	a3,t0
   106dc:	82b6                	mv	t0,a3
   106de:	02000693          	li	a3,32
   106e2:	3339                	jal	103f0 <_putc>
   106e4:	8696                	mv	a3,t0
   106e6:	1171                	addi	sp,sp,-4
   106e8:	c006                	sw	ra,0(sp)
   106ea:	3bf1                	jal	104c6 <saves>
   106ec:	869a                	mv	a3,t1
   106ee:	a0bff0ef          	jal	100f8 <puthex>
   106f2:	33e5                	jal	104da <loads>
   106f4:	4082                	lw	ra,0(sp)
   106f6:	0111                	addi	sp,sp,4
   106f8:	82b6                	mv	t0,a3
   106fa:	03200693          	li	a3,50
   106fe:	39cd                	jal	103f0 <_putc>
   10700:	8696                	mv	a3,t0
   10702:	82b6                	mv	t0,a3
   10704:	02000693          	li	a3,32
   10708:	31e5                	jal	103f0 <_putc>
   1070a:	8696                	mv	a3,t0
   1070c:	1171                	addi	sp,sp,-4
   1070e:	c006                	sw	ra,0(sp)
   10710:	3b5d                	jal	104c6 <saves>
   10712:	869e                	mv	a3,t2
   10714:	9e5ff0ef          	jal	100f8 <puthex>
   10718:	33c9                	jal	104da <loads>
   1071a:	4082                	lw	ra,0(sp)
   1071c:	0111                	addi	sp,sp,4
   1071e:	82b6                	mv	t0,a3
   10720:	03300693          	li	a3,51
   10724:	31f1                	jal	103f0 <_putc>
   10726:	8696                	mv	a3,t0
   10728:	82b6                	mv	t0,a3
   1072a:	02000693          	li	a3,32
   1072e:	31c9                	jal	103f0 <_putc>
   10730:	8696                	mv	a3,t0
   10732:	1171                	addi	sp,sp,-4
   10734:	c006                	sw	ra,0(sp)
   10736:	3b41                	jal	104c6 <saves>
   10738:	86f2                	mv	a3,t3
   1073a:	9bfff0ef          	jal	100f8 <puthex>
   1073e:	3b71                	jal	104da <loads>
   10740:	4082                	lw	ra,0(sp)
   10742:	0111                	addi	sp,sp,4
   10744:	82b6                	mv	t0,a3
   10746:	03400693          	li	a3,52
   1074a:	315d                	jal	103f0 <_putc>
   1074c:	8696                	mv	a3,t0
   1074e:	82b6                	mv	t0,a3
   10750:	02000693          	li	a3,32
   10754:	3971                	jal	103f0 <_putc>
   10756:	8696                	mv	a3,t0
   10758:	1171                	addi	sp,sp,-4
   1075a:	c006                	sw	ra,0(sp)
   1075c:	33ad                	jal	104c6 <saves>
   1075e:	86f6                	mv	a3,t4
   10760:	999ff0ef          	jal	100f8 <puthex>
   10764:	3b9d                	jal	104da <loads>
   10766:	4082                	lw	ra,0(sp)
   10768:	0111                	addi	sp,sp,4
   1076a:	82b6                	mv	t0,a3
   1076c:	03500693          	li	a3,53
   10770:	3141                	jal	103f0 <_putc>
   10772:	8696                	mv	a3,t0
   10774:	82b6                	mv	t0,a3
   10776:	02000693          	li	a3,32
   1077a:	399d                	jal	103f0 <_putc>
   1077c:	8696                	mv	a3,t0
   1077e:	1171                	addi	sp,sp,-4
   10780:	c006                	sw	ra,0(sp)
   10782:	3391                	jal	104c6 <saves>
   10784:	86fa                	mv	a3,t5
   10786:	973ff0ef          	jal	100f8 <puthex>
   1078a:	3b81                	jal	104da <loads>
   1078c:	4082                	lw	ra,0(sp)
   1078e:	0111                	addi	sp,sp,4
   10790:	82b6                	mv	t0,a3
   10792:	03600693          	li	a3,54
   10796:	39a9                	jal	103f0 <_putc>
   10798:	8696                	mv	a3,t0
   1079a:	82b6                	mv	t0,a3
   1079c:	02000693          	li	a3,32
   107a0:	3981                	jal	103f0 <_putc>
   107a2:	8696                	mv	a3,t0
   107a4:	1171                	addi	sp,sp,-4
   107a6:	c006                	sw	ra,0(sp)
   107a8:	3b39                	jal	104c6 <saves>
   107aa:	86fe                	mv	a3,t6
   107ac:	94dff0ef          	jal	100f8 <puthex>
   107b0:	332d                	jal	104da <loads>
   107b2:	4082                	lw	ra,0(sp)
   107b4:	0111                	addi	sp,sp,4
   107b6:	82b6                	mv	t0,a3
   107b8:	46a9                	li	a3,10
   107ba:	391d                	jal	103f0 <_putc>
   107bc:	8696                	mv	a3,t0
   107be:	82b6                	mv	t0,a3
   107c0:	05500693          	li	a3,85
   107c4:	3135                	jal	103f0 <_putc>
   107c6:	8696                	mv	a3,t0
   107c8:	82b6                	mv	t0,a3
   107ca:	02000693          	li	a3,32
   107ce:	310d                	jal	103f0 <_putc>
   107d0:	8696                	mv	a3,t0
   107d2:	82b6                	mv	t0,a3
   107d4:	05300693          	li	a3,83
   107d8:	3921                	jal	103f0 <_putc>
   107da:	8696                	mv	a3,t0
   107dc:	82b6                	mv	t0,a3
   107de:	02000693          	li	a3,32
   107e2:	3139                	jal	103f0 <_putc>
   107e4:	8696                	mv	a3,t0
   107e6:	4854                	lw	a3,20(s0)
   107e8:	1171                	addi	sp,sp,-4
   107ea:	c006                	sw	ra,0(sp)
   107ec:	39e9                	jal	104c6 <saves>
   107ee:	86b6                	mv	a3,a3
   107f0:	909ff0ef          	jal	100f8 <puthex>
   107f4:	31dd                	jal	104da <loads>
   107f6:	4082                	lw	ra,0(sp)
   107f8:	0111                	addi	sp,sp,4
   107fa:	82b6                	mv	t0,a3
   107fc:	04c00693          	li	a3,76
   10800:	3ec5                	jal	103f0 <_putc>
   10802:	8696                	mv	a3,t0
   10804:	82b6                	mv	t0,a3
   10806:	02000693          	li	a3,32
   1080a:	36dd                	jal	103f0 <_putc>
   1080c:	8696                	mv	a3,t0
   1080e:	4414                	lw	a3,8(s0)
   10810:	1171                	addi	sp,sp,-4
   10812:	c006                	sw	ra,0(sp)
   10814:	394d                	jal	104c6 <saves>
   10816:	86b6                	mv	a3,a3
   10818:	8e1ff0ef          	jal	100f8 <puthex>
   1081c:	397d                	jal	104da <loads>
   1081e:	4082                	lw	ra,0(sp)
   10820:	0111                	addi	sp,sp,4
   10822:	82b6                	mv	t0,a3
   10824:	04800693          	li	a3,72
   10828:	36e1                	jal	103f0 <_putc>
   1082a:	8696                	mv	a3,t0
   1082c:	82b6                	mv	t0,a3
   1082e:	02000693          	li	a3,32
   10832:	3e7d                	jal	103f0 <_putc>
   10834:	8696                	mv	a3,t0
   10836:	4454                	lw	a3,12(s0)
   10838:	1171                	addi	sp,sp,-4
   1083a:	c006                	sw	ra,0(sp)
   1083c:	3169                	jal	104c6 <saves>
   1083e:	86b6                	mv	a3,a3
   10840:	8b9ff0ef          	jal	100f8 <puthex>
   10844:	3959                	jal	104da <loads>
   10846:	4082                	lw	ra,0(sp)
   10848:	0111                	addi	sp,sp,4
   1084a:	82b6                	mv	t0,a3
   1084c:	04400693          	li	a3,68
   10850:	3645                	jal	103f0 <_putc>
   10852:	8696                	mv	a3,t0
   10854:	82b6                	mv	t0,a3
   10856:	02000693          	li	a3,32
   1085a:	3e59                	jal	103f0 <_putc>
   1085c:	8696                	mv	a3,t0
   1085e:	4c14                	lw	a3,24(s0)
   10860:	1171                	addi	sp,sp,-4
   10862:	c006                	sw	ra,0(sp)
   10864:	318d                	jal	104c6 <saves>
   10866:	86b6                	mv	a3,a3
   10868:	891ff0ef          	jal	100f8 <puthex>
   1086c:	31bd                	jal	104da <loads>
   1086e:	4082                	lw	ra,0(sp)
   10870:	0111                	addi	sp,sp,4
   10872:	82b6                	mv	t0,a3
   10874:	05300693          	li	a3,83
   10878:	3ea5                	jal	103f0 <_putc>
   1087a:	8696                	mv	a3,t0
   1087c:	82b6                	mv	t0,a3
   1087e:	05000693          	li	a3,80
   10882:	36bd                	jal	103f0 <_putc>
   10884:	8696                	mv	a3,t0
   10886:	82b6                	mv	t0,a3
   10888:	02000693          	li	a3,32
   1088c:	3695                	jal	103f0 <_putc>
   1088e:	8696                	mv	a3,t0
   10890:	4014                	lw	a3,0(s0)
   10892:	1171                	addi	sp,sp,-4
   10894:	c006                	sw	ra,0(sp)
   10896:	3905                	jal	104c6 <saves>
   10898:	86b6                	mv	a3,a3
   1089a:	85fff0ef          	jal	100f8 <puthex>
   1089e:	3935                	jal	104da <loads>
   108a0:	4082                	lw	ra,0(sp)
   108a2:	0111                	addi	sp,sp,4
   108a4:	82b6                	mv	t0,a3
   108a6:	05200693          	li	a3,82
   108aa:	3699                	jal	103f0 <_putc>
   108ac:	8696                	mv	a3,t0
   108ae:	82b6                	mv	t0,a3
   108b0:	05000693          	li	a3,80
   108b4:	3e35                	jal	103f0 <_putc>
   108b6:	8696                	mv	a3,t0
   108b8:	82b6                	mv	t0,a3
   108ba:	02000693          	li	a3,32
   108be:	3e0d                	jal	103f0 <_putc>
   108c0:	8696                	mv	a3,t0
   108c2:	4054                	lw	a3,4(s0)
   108c4:	1171                	addi	sp,sp,-4
   108c6:	c006                	sw	ra,0(sp)
   108c8:	3efd                	jal	104c6 <saves>
   108ca:	86b6                	mv	a3,a3
   108cc:	82dff0ef          	jal	100f8 <puthex>
   108d0:	3129                	jal	104da <loads>
   108d2:	4082                	lw	ra,0(sp)
   108d4:	0111                	addi	sp,sp,4
   108d6:	b921                	j	104ee <returns>

000108d8 <number>:
   108d8:	1171                	addi	sp,sp,-4
   108da:	c006                	sw	ra,0(sp)
   108dc:	36ed                	jal	104c6 <saves>
   108de:	00000633          	add	a2,zero,zero
   108e2:	00800593          	li	a1,8
   108e6:	4394                	lw	a3,0(a5)
   108e8:	01068763          	beq	a3,a6,108f6 <number+0x1e>
   108ec:	2031                	jal	108f8 <digit>
   108ee:	0612                	slli	a2,a2,0x4
   108f0:	8e55                	or	a2,a2,a3
   108f2:	15fd                	addi	a1,a1,-1
   108f4:	f9ed                	bnez	a1,108e6 <number+0xe>
   108f6:	bee5                	j	104ee <returns>

000108f8 <digit>:
   108f8:	fd068693          	addi	a3,a3,-48 # 7fffffd0 <hash_NAND+0x37dab10>
   108fc:	0006cb63          	bltz	a3,10912 <digit+0x1a>
   10900:	05a00713          	li	a4,90
   10904:	00d74763          	blt	a4,a3,10912 <digit+0x1a>
   10908:	4729                	li	a4,10
   1090a:	00e6c363          	blt	a3,a4,10910 <digit+0x18>
   1090e:	069d                	addi	a3,a3,7
   10910:	8082                	ret
   10912:	000006b3          	add	a3,zero,zero
   10916:	8082                	ret

00010918 <puthexy>:
   10918:	1171                	addi	sp,sp,-4
   1091a:	c006                	sw	ra,0(sp)
   1091c:	8936                	mv	s2,a3
   1091e:	03a00a93          	li	s5,58
   10922:	02000693          	li	a3,32
   10926:	acbff0ef          	jal	103f0 <_putc>
   1092a:	01895993          	srli	s3,s2,0x18
   1092e:	2831                	jal	1094a <puthexy+0x32>
   10930:	01095993          	srli	s3,s2,0x10
   10934:	2819                	jal	1094a <puthexy+0x32>
   10936:	00895993          	srli	s3,s2,0x8
   1093a:	2801                	jal	1094a <puthexy+0x32>
   1093c:	00095993          	srli	s3,s2,0x0
   10940:	2029                	jal	1094a <puthexy+0x32>
   10942:	86ca                	mv	a3,s2
   10944:	4082                	lw	ra,0(sp)
   10946:	0111                	addi	sp,sp,4
   10948:	8082                	ret
   1094a:	1171                	addi	sp,sp,-4
   1094c:	c006                	sw	ra,0(sp)
   1094e:	0ff9f993          	zext.b	s3,s3
   10952:	0049da13          	srli	s4,s3,0x4
   10956:	2039                	jal	10964 <puthexy+0x4c>
   10958:	0009da13          	srli	s4,s3,0x0
   1095c:	2021                	jal	10964 <puthexy+0x4c>
   1095e:	4082                	lw	ra,0(sp)
   10960:	0111                	addi	sp,sp,4
   10962:	8082                	ret
   10964:	1171                	addi	sp,sp,-4
   10966:	c006                	sw	ra,0(sp)
   10968:	00fa7a13          	andi	s4,s4,15
   1096c:	030a6a13          	ori	s4,s4,48
   10970:	015a4363          	blt	s4,s5,10976 <puthexy+0x5e>
   10974:	0a1d                	addi	s4,s4,7
   10976:	86d2                	mv	a3,s4
   10978:	a79ff0ef          	jal	103f0 <_putc>
   1097c:	4082                	lw	ra,0(sp)
   1097e:	0111                	addi	sp,sp,4
   10980:	8082                	ret
